
./navilnux_elf:     file format elf32-littlearm

Disassembly of section .text:

a0008000 <_ram_entry>:
a0008000:	ea000002 	b	a0008010 <kernel_init>
a0008004:	eafffffd 	b	a0008000 <_ram_entry>
a0008008:	ea00000c 	b	a0008040 <navilnux_swiHandler>
a000800c:	ea00001e 	b	a000808c <navilnux_irqHandler>

a0008010 <kernel_init>:
a0008010:	e321f0d3 	msr	CPSR_c, #211	; 0xd3
a0008014:	e59f00c0 	ldr	r0, [pc, #192]	; a00080dc <.text+0xdc>
a0008018:	e240d004 	sub	sp, r0, #4	; 0x4
a000801c:	e321f0d2 	msr	CPSR_c, #210	; 0xd2
a0008020:	e59f00b8 	ldr	r0, [pc, #184]	; a00080e0 <.text+0xe0>
a0008024:	e240d004 	sub	sp, r0, #4	; 0x4
a0008028:	e321f0d3 	msr	CPSR_c, #211	; 0xd3
a000802c:	e3a00329 	mov	r0, #-1543503872	; 0xa4000000
a0008030:	e240d004 	sub	sp, r0, #4	; 0x4
a0008034:	e321f0d3 	msr	CPSR_c, #211	; 0xd3
a0008038:	eb000da1 	bl	a000b6c4 <main>
a000803c:	eaffffef 	b	a0008000 <_ram_entry>

a0008040 <navilnux_swiHandler>:
a0008040:	e321f0d3 	msr	CPSR_c, #211	; 0xd3
a0008044:	e59fd090 	ldr	sp, [pc, #144]	; a00080dc <.text+0xdc>
a0008048:	e92d4000 	stmdb	sp!, {lr}
a000804c:	e96d7ffe 	stmdb	sp!, {r1, r2, r3, r4, r5, r6, r7, r8, r9, sl, fp, ip, sp, lr}^
a0008050:	e14fa000 	mrs	sl, SPSR
a0008054:	e92d0400 	stmdb	sp!, {sl}
a0008058:	e51ea004 	ldr	sl, [lr, #-4]
a000805c:	e3caa4ff 	bic	sl, sl, #-16777216	; 0xff000000
a0008060:	e3a0b004 	mov	fp, #4	; 0x4
a0008064:	e00a0b9a 	mul	sl, sl, fp
a0008068:	e59fb074 	ldr	fp, [pc, #116]	; a00080e4 <.text+0xe4>
a000806c:	e08bb00a 	add	fp, fp, sl
a0008070:	e59bb000 	ldr	fp, [fp]
a0008074:	e1a0e00f 	mov	lr, pc
a0008078:	e1a0f00b 	mov	pc, fp
a000807c:	e8bd0002 	ldmia	sp!, {r1}
a0008080:	e16ff001 	msr	SPSR_fsxc, r1
a0008084:	e8fd7ffe 	ldmia	sp!, {r1, r2, r3, r4, r5, r6, r7, r8, r9, sl, fp, ip, sp, lr}^
a0008088:	e8fd8000 	ldmia	sp!, {pc}^

a000808c <navilnux_irqHandler>:
a000808c:	e321f0d2 	msr	CPSR_c, #210	; 0xd2
a0008090:	e59fd050 	ldr	sp, [pc, #80]	; a00080e8 <.text+0xe8>
a0008094:	e59dd000 	ldr	sp, [sp]
a0008098:	e24ee004 	sub	lr, lr, #4	; 0x4
a000809c:	e28dd004 	add	sp, sp, #4	; 0x4
a00080a0:	e8ed1fff 	stmia	sp!, {r0, r1, r2, r3, r4, r5, r6, r7, r8, r9, sl, fp, ip}^
a00080a4:	e8ed6000 	stmia	sp!, {sp, lr}^
a00080a8:	e8ad4000 	stmia	sp!, {lr}
a00080ac:	e24dd044 	sub	sp, sp, #68	; 0x44
a00080b0:	e14f1000 	mrs	r1, SPSR
a00080b4:	e8ad0002 	stmia	sp!, {r1}
a00080b8:	e59fd020 	ldr	sp, [pc, #32]	; a00080e0 <.text+0xe0>
a00080bc:	eb000cc9 	bl	a000b3e8 <irqHandler>
a00080c0:	e59fd024 	ldr	sp, [pc, #36]	; a00080ec <.text+0xec>
a00080c4:	e59dd000 	ldr	sp, [sp]
a00080c8:	e8bd0002 	ldmia	sp!, {r1}
a00080cc:	e16ff001 	msr	SPSR_fsxc, r1
a00080d0:	e8fd1fff 	ldmia	sp!, {r0, r1, r2, r3, r4, r5, r6, r7, r8, r9, sl, fp, ip}^
a00080d4:	e8fd6000 	ldmia	sp!, {sp, lr}^
a00080d8:	e8fd8000 	ldmia	sp!, {pc}^
a00080dc:	a0300000 	eorges	r0, r0, r0
a00080e0:	a0380000 	eorges	r0, r8, r0
a00080e4:	a000ce54 	andge	ip, r0, r4, asr lr
a00080e8:	a000c170 	andge	ip, r0, r0, ror r1
a00080ec:	a000c174 	andge	ip, r0, r4, ror r1

a00080f0 <set_GPIO_mode>:
a00080f0:	e1a0c00d 	mov	ip, sp
a00080f4:	e92dd800 	stmdb	sp!, {fp, ip, lr, pc}
a00080f8:	e24cb004 	sub	fp, ip, #4	; 0x4
a00080fc:	e24dd010 	sub	sp, sp, #16	; 0x10
a0008100:	e50b0010 	str	r0, [fp, #-16]
a0008104:	e51b3010 	ldr	r3, [fp, #-16]
a0008108:	e203307f 	and	r3, r3, #127	; 0x7f
a000810c:	e50b3014 	str	r3, [fp, #-20]
a0008110:	e51b3010 	ldr	r3, [fp, #-16]
a0008114:	e2033c03 	and	r3, r3, #768	; 0x300
a0008118:	e1a03443 	mov	r3, r3, asr #8
a000811c:	e50b3018 	str	r3, [fp, #-24]
a0008120:	e51b3010 	ldr	r3, [fp, #-16]
a0008124:	e1a033a3 	mov	r3, r3, lsr #7
a0008128:	e2033001 	and	r3, r3, #1	; 0x1
a000812c:	e3530000 	cmp	r3, #0	; 0x0
a0008130:	0a000011 	beq	a000817c <set_GPIO_mode+0x8c>
a0008134:	e51b3014 	ldr	r3, [fp, #-20]
a0008138:	e2033060 	and	r3, r3, #96	; 0x60
a000813c:	e1a0e1c3 	mov	lr, r3, asr #3
a0008140:	e3a00131 	mov	r0, #1073741836	; 0x4000000c
a0008144:	e280060e 	add	r0, r0, #14680064	; 0xe00000
a0008148:	e51b3014 	ldr	r3, [fp, #-20]
a000814c:	e2033060 	and	r3, r3, #96	; 0x60
a0008150:	e1a0c1c3 	mov	ip, r3, asr #3
a0008154:	e3a02131 	mov	r2, #1073741836	; 0x4000000c
a0008158:	e282260e 	add	r2, r2, #14680064	; 0xe00000
a000815c:	e51b3014 	ldr	r3, [fp, #-20]
a0008160:	e203101f 	and	r1, r3, #31	; 0x1f
a0008164:	e3a03001 	mov	r3, #1	; 0x1
a0008168:	e1a01113 	mov	r1, r3, lsl r1
a000816c:	e79c3002 	ldr	r3, [ip, r2]
a0008170:	e1833001 	orr	r3, r3, r1
a0008174:	e78e3000 	str	r3, [lr, r0]
a0008178:	ea000011 	b	a00081c4 <set_GPIO_mode+0xd4>
a000817c:	e51b3014 	ldr	r3, [fp, #-20]
a0008180:	e2033060 	and	r3, r3, #96	; 0x60
a0008184:	e1a0e1c3 	mov	lr, r3, asr #3
a0008188:	e3a00131 	mov	r0, #1073741836	; 0x4000000c
a000818c:	e280060e 	add	r0, r0, #14680064	; 0xe00000
a0008190:	e51b3014 	ldr	r3, [fp, #-20]
a0008194:	e2033060 	and	r3, r3, #96	; 0x60
a0008198:	e1a0c1c3 	mov	ip, r3, asr #3
a000819c:	e3a02131 	mov	r2, #1073741836	; 0x4000000c
a00081a0:	e282260e 	add	r2, r2, #14680064	; 0xe00000
a00081a4:	e51b3014 	ldr	r3, [fp, #-20]
a00081a8:	e203101f 	and	r1, r3, #31	; 0x1f
a00081ac:	e3a03001 	mov	r3, #1	; 0x1
a00081b0:	e1a03113 	mov	r3, r3, lsl r1
a00081b4:	e1e01003 	mvn	r1, r3
a00081b8:	e79c3002 	ldr	r3, [ip, r2]
a00081bc:	e0033001 	and	r3, r3, r1
a00081c0:	e78e3000 	str	r3, [lr, r0]
a00081c4:	e51b3014 	ldr	r3, [fp, #-20]
a00081c8:	e2033070 	and	r3, r3, #112	; 0x70
a00081cc:	e1a01143 	mov	r1, r3, asr #2
a00081d0:	e59f0058 	ldr	r0, [pc, #88]	; a0008230 <.text+0x230>
a00081d4:	e51b3014 	ldr	r3, [fp, #-20]
a00081d8:	e203300f 	and	r3, r3, #15	; 0xf
a00081dc:	e1a02083 	mov	r2, r3, lsl #1
a00081e0:	e3a03003 	mov	r3, #3	; 0x3
a00081e4:	e1a03213 	mov	r3, r3, lsl r2
a00081e8:	e1e02003 	mvn	r2, r3
a00081ec:	e7913000 	ldr	r3, [r1, r0]
a00081f0:	e0033002 	and	r3, r3, r2
a00081f4:	e50b301c 	str	r3, [fp, #-28]
a00081f8:	e51b3014 	ldr	r3, [fp, #-20]
a00081fc:	e2033070 	and	r3, r3, #112	; 0x70
a0008200:	e1a01143 	mov	r1, r3, asr #2
a0008204:	e59f0024 	ldr	r0, [pc, #36]	; a0008230 <.text+0x230>
a0008208:	e51b3014 	ldr	r3, [fp, #-20]
a000820c:	e203300f 	and	r3, r3, #15	; 0xf
a0008210:	e1a02083 	mov	r2, r3, lsl #1
a0008214:	e51b3018 	ldr	r3, [fp, #-24]
a0008218:	e1a02213 	mov	r2, r3, lsl r2
a000821c:	e51b301c 	ldr	r3, [fp, #-28]
a0008220:	e1823003 	orr	r3, r2, r3
a0008224:	e7813000 	str	r3, [r1, r0]
a0008228:	e24bd00c 	sub	sp, fp, #12	; 0xc
a000822c:	e89da800 	ldmia	sp, {fp, sp, pc}
a0008230:	40e00054 	rscmi	r0, r0, r4, asr r0

a0008234 <GPIOInit>:
a0008234:	e1a0c00d 	mov	ip, sp
a0008238:	e92dd800 	stmdb	sp!, {fp, ip, lr, pc}
a000823c:	e24cb004 	sub	fp, ip, #4	; 0x4
a0008240:	e89da800 	ldmia	sp, {fp, sp, pc}

a0008244 <GPIO_SetLED>:
a0008244:	e1a0c00d 	mov	ip, sp
a0008248:	e92dd800 	stmdb	sp!, {fp, ip, lr, pc}
a000824c:	e24cb004 	sub	fp, ip, #4	; 0x4
a0008250:	e24dd008 	sub	sp, sp, #8	; 0x8
a0008254:	e50b0010 	str	r0, [fp, #-16]
a0008258:	e50b1014 	str	r1, [fp, #-20]
a000825c:	e51b3014 	ldr	r3, [fp, #-20]
a0008260:	e3530000 	cmp	r3, #0	; 0x0
a0008264:	0a00001b 	beq	a00082d8 <.text+0x2d8>
a0008268:	e51b3010 	ldr	r3, [fp, #-16]
a000826c:	e3530003 	cmp	r3, #3	; 0x3
a0008270:	979ff103 	ldrls	pc, [pc, r3, lsl #2]
a0008274:	ea000032 	b	a0008344 <.text+0x344>
a0008278:	a0008288 	andge	r8, r0, r8, lsl #5
a000827c:	a000829c 	mulge	r0, ip, r2
a0008280:	a00082b0 	strgeh	r8, [r0], -r0
a0008284:	a00082c4 	andge	r8, r0, r4, asr #5
a0008288:	e3a03191 	mov	r3, #1073741860	; 0x40000024
a000828c:	e283360e 	add	r3, r3, #14680064	; 0xe00000
a0008290:	e3a02004 	mov	r2, #4	; 0x4
a0008294:	e5832000 	str	r2, [r3]
a0008298:	ea000029 	b	a0008344 <.text+0x344>
a000829c:	e3a03191 	mov	r3, #1073741860	; 0x40000024
a00082a0:	e283360e 	add	r3, r3, #14680064	; 0xe00000
a00082a4:	e3a02008 	mov	r2, #8	; 0x8
a00082a8:	e5832000 	str	r2, [r3]
a00082ac:	ea000024 	b	a0008344 <.text+0x344>
a00082b0:	e3a03191 	mov	r3, #1073741860	; 0x40000024
a00082b4:	e283360e 	add	r3, r3, #14680064	; 0xe00000
a00082b8:	e3a02010 	mov	r2, #16	; 0x10
a00082bc:	e5832000 	str	r2, [r3]
a00082c0:	ea00001f 	b	a0008344 <.text+0x344>
a00082c4:	e3a03191 	mov	r3, #1073741860	; 0x40000024
a00082c8:	e283360e 	add	r3, r3, #14680064	; 0xe00000
a00082cc:	e3a02020 	mov	r2, #32	; 0x20
a00082d0:	e5832000 	str	r2, [r3]
a00082d4:	ea00001a 	b	a0008344 <.text+0x344>
a00082d8:	e51b3010 	ldr	r3, [fp, #-16]
a00082dc:	e3530003 	cmp	r3, #3	; 0x3
a00082e0:	979ff103 	ldrls	pc, [pc, r3, lsl #2]
a00082e4:	ea000016 	b	a0008344 <.text+0x344>
a00082e8:	a00082f8 	strged	r8, [r0], -r8
a00082ec:	a000830c 	andge	r8, r0, ip, lsl #6
a00082f0:	a0008320 	andge	r8, r0, r0, lsr #6
a00082f4:	a0008334 	andge	r8, r0, r4, lsr r3
a00082f8:	e3a03161 	mov	r3, #1073741848	; 0x40000018
a00082fc:	e283360e 	add	r3, r3, #14680064	; 0xe00000
a0008300:	e3a02004 	mov	r2, #4	; 0x4
a0008304:	e5832000 	str	r2, [r3]
a0008308:	ea00000d 	b	a0008344 <.text+0x344>
a000830c:	e3a03161 	mov	r3, #1073741848	; 0x40000018
a0008310:	e283360e 	add	r3, r3, #14680064	; 0xe00000
a0008314:	e3a02008 	mov	r2, #8	; 0x8
a0008318:	e5832000 	str	r2, [r3]
a000831c:	ea000008 	b	a0008344 <.text+0x344>
a0008320:	e3a03161 	mov	r3, #1073741848	; 0x40000018
a0008324:	e283360e 	add	r3, r3, #14680064	; 0xe00000
a0008328:	e3a02010 	mov	r2, #16	; 0x10
a000832c:	e5832000 	str	r2, [r3]
a0008330:	ea000003 	b	a0008344 <.text+0x344>
a0008334:	e3a03161 	mov	r3, #1073741848	; 0x40000018
a0008338:	e283360e 	add	r3, r3, #14680064	; 0xe00000
a000833c:	e3a02020 	mov	r2, #32	; 0x20
a0008340:	e5832000 	str	r2, [r3]
a0008344:	e24bd00c 	sub	sp, fp, #12	; 0xc
a0008348:	e89da800 	ldmia	sp, {fp, sp, pc}

a000834c <SetWatchdog>:
a000834c:	e1a0c00d 	mov	ip, sp
a0008350:	e92dd800 	stmdb	sp!, {fp, ip, lr, pc}
a0008354:	e24cb004 	sub	fp, ip, #4	; 0x4
a0008358:	e24dd004 	sub	sp, sp, #4	; 0x4
a000835c:	e50b0010 	str	r0, [fp, #-16]
a0008360:	e3a03161 	mov	r3, #1073741848	; 0x40000018
a0008364:	e283360a 	add	r3, r3, #10485760	; 0xa00000
a0008368:	e3a02001 	mov	r2, #1	; 0x1
a000836c:	e5832000 	str	r2, [r3]
a0008370:	e3a03151 	mov	r3, #1073741844	; 0x40000014
a0008374:	e283360a 	add	r3, r3, #10485760	; 0xa00000
a0008378:	e3a02008 	mov	r2, #8	; 0x8
a000837c:	e5832000 	str	r2, [r3]
a0008380:	e3a0c131 	mov	ip, #1073741836	; 0x4000000c
a0008384:	e28cc60a 	add	ip, ip, #10485760	; 0xa00000
a0008388:	e3a01141 	mov	r1, #1073741840	; 0x40000010
a000838c:	e281160a 	add	r1, r1, #10485760	; 0xa00000
a0008390:	e51b0010 	ldr	r0, [fp, #-16]
a0008394:	e59f302c 	ldr	r3, [pc, #44]	; a00083c8 <.text+0x3c8>
a0008398:	e0c32390 	smull	r2, r3, r0, r3
a000839c:	e1a02143 	mov	r2, r3, asr #2
a00083a0:	e1a03fc0 	mov	r3, r0, asr #31
a00083a4:	e0632002 	rsb	r2, r3, r2
a00083a8:	e1a03002 	mov	r3, r2
a00083ac:	e1a03183 	mov	r3, r3, lsl #3
a00083b0:	e0833002 	add	r3, r3, r2
a00083b4:	e1a02603 	mov	r2, r3, lsl #12
a00083b8:	e5913000 	ldr	r3, [r1]
a00083bc:	e0833002 	add	r3, r3, r2
a00083c0:	e58c3000 	str	r3, [ip]
a00083c4:	e99da800 	ldmib	sp, {fp, sp, pc}
a00083c8:	66666667 	strvsbt	r6, [r6], -r7, ror #12

a00083cc <TimerInit>:
a00083cc:	e1a0c00d 	mov	ip, sp
a00083d0:	e92dd800 	stmdb	sp!, {fp, ip, lr, pc}
a00083d4:	e24cb004 	sub	fp, ip, #4	; 0x4
a00083d8:	e3a03141 	mov	r3, #1073741840	; 0x40000010
a00083dc:	e283360a 	add	r3, r3, #10485760	; 0xa00000
a00083e0:	e3a02000 	mov	r2, #0	; 0x0
a00083e4:	e5832000 	str	r2, [r3]
a00083e8:	e3a03171 	mov	r3, #1073741852	; 0x4000001c
a00083ec:	e283360a 	add	r3, r3, #10485760	; 0xa00000
a00083f0:	e3a02000 	mov	r2, #0	; 0x0
a00083f4:	e5832000 	str	r2, [r3]
a00083f8:	e3a03141 	mov	r3, #1073741840	; 0x40000010
a00083fc:	e283360a 	add	r3, r3, #10485760	; 0xa00000
a0008400:	e5933000 	ldr	r3, [r3]
a0008404:	e3530000 	cmp	r3, #0	; 0x0
a0008408:	1a000000 	bne	a0008410 <TimerInit+0x44>
a000840c:	eafffff9 	b	a00083f8 <TimerInit+0x2c>
a0008410:	e3a03101 	mov	r3, #1073741824	; 0x40000000
a0008414:	e283360a 	add	r3, r3, #10485760	; 0xa00000
a0008418:	e3a02000 	mov	r2, #0	; 0x0
a000841c:	e5832000 	str	r2, [r3]
a0008420:	e3a03151 	mov	r3, #1073741844	; 0x40000014
a0008424:	e283360a 	add	r3, r3, #10485760	; 0xa00000
a0008428:	e3a02001 	mov	r2, #1	; 0x1
a000842c:	e5832000 	str	r2, [r3]
a0008430:	e59f2008 	ldr	r2, [pc, #8]	; a0008440 <.text+0x440>
a0008434:	e3a03000 	mov	r3, #0	; 0x0
a0008438:	e5823000 	str	r3, [r2]
a000843c:	e89da800 	ldmia	sp, {fp, sp, pc}
a0008440:	a000c05c 	andge	ip, r0, ip, asr r0

a0008444 <TimerGetTime>:
a0008444:	e1a0c00d 	mov	ip, sp
a0008448:	e92dd800 	stmdb	sp!, {fp, ip, lr, pc}
a000844c:	e24cb004 	sub	fp, ip, #4	; 0x4
a0008450:	e3a03141 	mov	r3, #1073741840	; 0x40000010
a0008454:	e283360a 	add	r3, r3, #10485760	; 0xa00000
a0008458:	e5933000 	ldr	r3, [r3]
a000845c:	e1a00003 	mov	r0, r3
a0008460:	e89da800 	ldmia	sp, {fp, sp, pc}

a0008464 <TimerDetectOverflow>:
a0008464:	e1a0c00d 	mov	ip, sp
a0008468:	e92dd800 	stmdb	sp!, {fp, ip, lr, pc}
a000846c:	e24cb004 	sub	fp, ip, #4	; 0x4
a0008470:	e3a03151 	mov	r3, #1073741844	; 0x40000014
a0008474:	e283360a 	add	r3, r3, #10485760	; 0xa00000
a0008478:	e5933000 	ldr	r3, [r3]
a000847c:	e2033001 	and	r3, r3, #1	; 0x1
a0008480:	e1a00003 	mov	r0, r3
a0008484:	e89da800 	ldmia	sp, {fp, sp, pc}

a0008488 <TimerClearOverflow>:
a0008488:	e1a0c00d 	mov	ip, sp
a000848c:	e92dd800 	stmdb	sp!, {fp, ip, lr, pc}
a0008490:	e24cb004 	sub	fp, ip, #4	; 0x4
a0008494:	ebfffff2 	bl	a0008464 <TimerDetectOverflow>
a0008498:	e1a03000 	mov	r3, r0
a000849c:	e3530000 	cmp	r3, #0	; 0x0
a00084a0:	0a000004 	beq	a00084b8 <TimerClearOverflow+0x30>
a00084a4:	e59f2020 	ldr	r2, [pc, #32]	; a00084cc <.text+0x4cc>
a00084a8:	e59f301c 	ldr	r3, [pc, #28]	; a00084cc <.text+0x4cc>
a00084ac:	e5933000 	ldr	r3, [r3]
a00084b0:	e2833001 	add	r3, r3, #1	; 0x1
a00084b4:	e5823000 	str	r3, [r2]
a00084b8:	e3a03151 	mov	r3, #1073741844	; 0x40000014
a00084bc:	e283360a 	add	r3, r3, #10485760	; 0xa00000
a00084c0:	e3a02001 	mov	r2, #1	; 0x1
a00084c4:	e5832000 	str	r2, [r3]
a00084c8:	e89da800 	ldmia	sp, {fp, sp, pc}
a00084cc:	a000c05c 	andge	ip, r0, ip, asr r0

a00084d0 <msleep>:
a00084d0:	e1a0c00d 	mov	ip, sp
a00084d4:	e92dd800 	stmdb	sp!, {fp, ip, lr, pc}
a00084d8:	e24cb004 	sub	fp, ip, #4	; 0x4
a00084dc:	e24dd004 	sub	sp, sp, #4	; 0x4
a00084e0:	e50b0010 	str	r0, [fp, #-16]
a00084e4:	e3a00000 	mov	r0, #0	; 0x0
a00084e8:	e51b1010 	ldr	r1, [fp, #-16]
a00084ec:	eb000008 	bl	a0008514 <ReloadTimer>
a00084f0:	e3a00000 	mov	r0, #0	; 0x0
a00084f4:	eb000059 	bl	a0008660 <TimeOverflow>
a00084f8:	e1a03000 	mov	r3, r0
a00084fc:	e3530000 	cmp	r3, #0	; 0x0
a0008500:	1a000000 	bne	a0008508 <msleep+0x38>
a0008504:	eafffff9 	b	a00084f0 <msleep+0x20>
a0008508:	e3a00000 	mov	r0, #0	; 0x0
a000850c:	eb000066 	bl	a00086ac <FreeTimer>
a0008510:	e99da800 	ldmib	sp, {fp, sp, pc}

a0008514 <ReloadTimer>:
a0008514:	e1a0c00d 	mov	ip, sp
a0008518:	e92dd800 	stmdb	sp!, {fp, ip, lr, pc}
a000851c:	e24cb004 	sub	fp, ip, #4	; 0x4
a0008520:	e24dd00c 	sub	sp, sp, #12	; 0xc
a0008524:	e1a03000 	mov	r3, r0
a0008528:	e50b1014 	str	r1, [fp, #-20]
a000852c:	e54b300d 	strb	r3, [fp, #-13]
a0008530:	e55b300d 	ldrb	r3, [fp, #-13]
a0008534:	e2033003 	and	r3, r3, #3	; 0x3
a0008538:	e54b300d 	strb	r3, [fp, #-13]
a000853c:	e55b200d 	ldrb	r2, [fp, #-13]
a0008540:	e3a03001 	mov	r3, #1	; 0x1
a0008544:	e1a03213 	mov	r3, r3, lsl r2
a0008548:	e50b3018 	str	r3, [fp, #-24]
a000854c:	e3a03151 	mov	r3, #1073741844	; 0x40000014
a0008550:	e283360a 	add	r3, r3, #10485760	; 0xa00000
a0008554:	e51b2018 	ldr	r2, [fp, #-24]
a0008558:	e5832000 	str	r2, [r3]
a000855c:	e55b300d 	ldrb	r3, [fp, #-13]
a0008560:	e3530003 	cmp	r3, #3	; 0x3
a0008564:	979ff103 	ldrls	pc, [pc, r3, lsl #2]
a0008568:	ea000032 	b	a0008638 <.text+0x638>
a000856c:	a000857c 	andge	r8, r0, ip, ror r5
a0008570:	a00085ac 	andge	r8, r0, ip, lsr #11
a0008574:	a00085dc 	ldrged	r8, [r0], -ip
a0008578:	a000860c 	andge	r8, r0, ip, lsl #12
a000857c:	e3a00101 	mov	r0, #1073741824	; 0x40000000
a0008580:	e280060a 	add	r0, r0, #10485760	; 0xa00000
a0008584:	e3a02141 	mov	r2, #1073741840	; 0x40000010
a0008588:	e282260a 	add	r2, r2, #10485760	; 0xa00000
a000858c:	e51b1014 	ldr	r1, [fp, #-20]
a0008590:	e3a03ee6 	mov	r3, #3680	; 0xe60
a0008594:	e2833006 	add	r3, r3, #6	; 0x6
a0008598:	e0010193 	mul	r1, r3, r1
a000859c:	e5923000 	ldr	r3, [r2]
a00085a0:	e0833001 	add	r3, r3, r1
a00085a4:	e5803000 	str	r3, [r0]
a00085a8:	ea000022 	b	a0008638 <.text+0x638>
a00085ac:	e3a00111 	mov	r0, #1073741828	; 0x40000004
a00085b0:	e280060a 	add	r0, r0, #10485760	; 0xa00000
a00085b4:	e3a02141 	mov	r2, #1073741840	; 0x40000010
a00085b8:	e282260a 	add	r2, r2, #10485760	; 0xa00000
a00085bc:	e51b1014 	ldr	r1, [fp, #-20]
a00085c0:	e3a03ee6 	mov	r3, #3680	; 0xe60
a00085c4:	e2833006 	add	r3, r3, #6	; 0x6
a00085c8:	e0010193 	mul	r1, r3, r1
a00085cc:	e5923000 	ldr	r3, [r2]
a00085d0:	e0833001 	add	r3, r3, r1
a00085d4:	e5803000 	str	r3, [r0]
a00085d8:	ea000016 	b	a0008638 <.text+0x638>
a00085dc:	e3a00121 	mov	r0, #1073741832	; 0x40000008
a00085e0:	e280060a 	add	r0, r0, #10485760	; 0xa00000
a00085e4:	e3a02141 	mov	r2, #1073741840	; 0x40000010
a00085e8:	e282260a 	add	r2, r2, #10485760	; 0xa00000
a00085ec:	e51b1014 	ldr	r1, [fp, #-20]
a00085f0:	e3a03ee6 	mov	r3, #3680	; 0xe60
a00085f4:	e2833006 	add	r3, r3, #6	; 0x6
a00085f8:	e0010193 	mul	r1, r3, r1
a00085fc:	e5923000 	ldr	r3, [r2]
a0008600:	e0833001 	add	r3, r3, r1
a0008604:	e5803000 	str	r3, [r0]
a0008608:	ea00000a 	b	a0008638 <.text+0x638>
a000860c:	e3a00131 	mov	r0, #1073741836	; 0x4000000c
a0008610:	e280060a 	add	r0, r0, #10485760	; 0xa00000
a0008614:	e3a02141 	mov	r2, #1073741840	; 0x40000010
a0008618:	e282260a 	add	r2, r2, #10485760	; 0xa00000
a000861c:	e51b1014 	ldr	r1, [fp, #-20]
a0008620:	e3a03ee6 	mov	r3, #3680	; 0xe60
a0008624:	e2833006 	add	r3, r3, #6	; 0x6
a0008628:	e0010193 	mul	r1, r3, r1
a000862c:	e5923000 	ldr	r3, [r2]
a0008630:	e0833001 	add	r3, r3, r1
a0008634:	e5803000 	str	r3, [r0]
a0008638:	e3a02171 	mov	r2, #1073741852	; 0x4000001c
a000863c:	e282260a 	add	r2, r2, #10485760	; 0xa00000
a0008640:	e3a03171 	mov	r3, #1073741852	; 0x4000001c
a0008644:	e283360a 	add	r3, r3, #10485760	; 0xa00000
a0008648:	e5931000 	ldr	r1, [r3]
a000864c:	e51b3018 	ldr	r3, [fp, #-24]
a0008650:	e1813003 	orr	r3, r1, r3
a0008654:	e5823000 	str	r3, [r2]
a0008658:	e24bd00c 	sub	sp, fp, #12	; 0xc
a000865c:	e89da800 	ldmia	sp, {fp, sp, pc}

a0008660 <TimeOverflow>:
a0008660:	e1a0c00d 	mov	ip, sp
a0008664:	e92dd800 	stmdb	sp!, {fp, ip, lr, pc}
a0008668:	e24cb004 	sub	fp, ip, #4	; 0x4
a000866c:	e24dd008 	sub	sp, sp, #8	; 0x8
a0008670:	e1a03000 	mov	r3, r0
a0008674:	e54b300d 	strb	r3, [fp, #-13]
a0008678:	e55b300d 	ldrb	r3, [fp, #-13]
a000867c:	e2032003 	and	r2, r3, #3	; 0x3
a0008680:	e3a03001 	mov	r3, #1	; 0x1
a0008684:	e1a03213 	mov	r3, r3, lsl r2
a0008688:	e50b3014 	str	r3, [fp, #-20]
a000868c:	e3a03151 	mov	r3, #1073741844	; 0x40000014
a0008690:	e283360a 	add	r3, r3, #10485760	; 0xa00000
a0008694:	e5932000 	ldr	r2, [r3]
a0008698:	e51b3014 	ldr	r3, [fp, #-20]
a000869c:	e0023003 	and	r3, r2, r3
a00086a0:	e1a00003 	mov	r0, r3
a00086a4:	e24bd00c 	sub	sp, fp, #12	; 0xc
a00086a8:	e89da800 	ldmia	sp, {fp, sp, pc}

a00086ac <FreeTimer>:
a00086ac:	e1a0c00d 	mov	ip, sp
a00086b0:	e92dd800 	stmdb	sp!, {fp, ip, lr, pc}
a00086b4:	e24cb004 	sub	fp, ip, #4	; 0x4
a00086b8:	e24dd008 	sub	sp, sp, #8	; 0x8
a00086bc:	e1a03000 	mov	r3, r0
a00086c0:	e54b300d 	strb	r3, [fp, #-13]
a00086c4:	e55b300d 	ldrb	r3, [fp, #-13]
a00086c8:	e2032003 	and	r2, r3, #3	; 0x3
a00086cc:	e3a03001 	mov	r3, #1	; 0x1
a00086d0:	e1a03213 	mov	r3, r3, lsl r2
a00086d4:	e50b3014 	str	r3, [fp, #-20]
a00086d8:	e3a01171 	mov	r1, #1073741852	; 0x4000001c
a00086dc:	e281160a 	add	r1, r1, #10485760	; 0xa00000
a00086e0:	e3a03171 	mov	r3, #1073741852	; 0x4000001c
a00086e4:	e283360a 	add	r3, r3, #10485760	; 0xa00000
a00086e8:	e51b2014 	ldr	r2, [fp, #-20]
a00086ec:	e1e02002 	mvn	r2, r2
a00086f0:	e5933000 	ldr	r3, [r3]
a00086f4:	e0033002 	and	r3, r3, r2
a00086f8:	e5813000 	str	r3, [r1]
a00086fc:	e24bd00c 	sub	sp, fp, #12	; 0xc
a0008700:	e89da800 	ldmia	sp, {fp, sp, pc}

a0008704 <skip_atoi>:
a0008704:	e1a0c00d 	mov	ip, sp
a0008708:	e92dd800 	stmdb	sp!, {fp, ip, lr, pc}
a000870c:	e24cb004 	sub	fp, ip, #4	; 0x4
a0008710:	e24dd008 	sub	sp, sp, #8	; 0x8
a0008714:	e50b0010 	str	r0, [fp, #-16]
a0008718:	e3a03000 	mov	r3, #0	; 0x0
a000871c:	e50b3014 	str	r3, [fp, #-20]
a0008720:	e59f2060 	ldr	r2, [pc, #96]	; a0008788 <.text+0x788>
a0008724:	e51b3010 	ldr	r3, [fp, #-16]
a0008728:	e5933000 	ldr	r3, [r3]
a000872c:	e5d33000 	ldrb	r3, [r3]
a0008730:	e7d23003 	ldrb	r3, [r2, r3]
a0008734:	e1a03123 	mov	r3, r3, lsr #2
a0008738:	e2033001 	and	r3, r3, #1	; 0x1
a000873c:	e3530000 	cmp	r3, #0	; 0x0
a0008740:	0a00000c 	beq	a0008778 <skip_atoi+0x74>
a0008744:	e51b2014 	ldr	r2, [fp, #-20]
a0008748:	e3a0300a 	mov	r3, #10	; 0xa
a000874c:	e0010293 	mul	r1, r3, r2
a0008750:	e51b0010 	ldr	r0, [fp, #-16]
a0008754:	e5902000 	ldr	r2, [r0]
a0008758:	e1a03002 	mov	r3, r2
a000875c:	e5d33000 	ldrb	r3, [r3]
a0008760:	e0813003 	add	r3, r1, r3
a0008764:	e2433030 	sub	r3, r3, #48	; 0x30
a0008768:	e2822001 	add	r2, r2, #1	; 0x1
a000876c:	e5802000 	str	r2, [r0]
a0008770:	e50b3014 	str	r3, [fp, #-20]
a0008774:	eaffffe9 	b	a0008720 <skip_atoi+0x1c>
a0008778:	e51b3014 	ldr	r3, [fp, #-20]
a000877c:	e1a00003 	mov	r0, r3
a0008780:	e24bd00c 	sub	sp, fp, #12	; 0xc
a0008784:	e89da800 	ldmia	sp, {fp, sp, pc}
a0008788:	a000bf58 	andge	fp, r0, r8, asr pc

a000878c <number>:
a000878c:	e1a0c00d 	mov	ip, sp
a0008790:	e92dd870 	stmdb	sp!, {r4, r5, r6, fp, ip, lr, pc}
a0008794:	e24cb004 	sub	fp, ip, #4	; 0x4
a0008798:	e24dd070 	sub	sp, sp, #112	; 0x70
a000879c:	e50b001c 	str	r0, [fp, #-28]
a00087a0:	e3e0000b 	mvn	r0, #11	; 0xb
a00087a4:	e24bc018 	sub	ip, fp, #24	; 0x18
a00087a8:	e08c0000 	add	r0, ip, r0
a00087ac:	e8800006 	stmia	r0, {r1, r2}
a00087b0:	e50b3028 	str	r3, [fp, #-40]
a00087b4:	e59f3514 	ldr	r3, [pc, #1300]	; a0008cd0 <.text+0xcd0>
a00087b8:	e50b3074 	str	r3, [fp, #-116]
a00087bc:	e59b300c 	ldr	r3, [fp, #12]
a00087c0:	e1a03323 	mov	r3, r3, lsr #6
a00087c4:	e2033001 	and	r3, r3, #1	; 0x1
a00087c8:	e3530000 	cmp	r3, #0	; 0x0
a00087cc:	0a000001 	beq	a00087d8 <number+0x4c>
a00087d0:	e59f34fc 	ldr	r3, [pc, #1276]	; a0008cd4 <.text+0xcd4>
a00087d4:	e50b3074 	str	r3, [fp, #-116]
a00087d8:	e59b300c 	ldr	r3, [fp, #12]
a00087dc:	e1a03223 	mov	r3, r3, lsr #4
a00087e0:	e2033001 	and	r3, r3, #1	; 0x1
a00087e4:	e3530000 	cmp	r3, #0	; 0x0
a00087e8:	0a000002 	beq	a00087f8 <number+0x6c>
a00087ec:	e59b300c 	ldr	r3, [fp, #12]
a00087f0:	e3c33001 	bic	r3, r3, #1	; 0x1
a00087f4:	e58b300c 	str	r3, [fp, #12]
a00087f8:	e51b3028 	ldr	r3, [fp, #-40]
a00087fc:	e3530001 	cmp	r3, #1	; 0x1
a0008800:	da000003 	ble	a0008814 <number+0x88>
a0008804:	e51b3028 	ldr	r3, [fp, #-40]
a0008808:	e3530024 	cmp	r3, #36	; 0x24
a000880c:	ca000000 	bgt	a0008814 <number+0x88>
a0008810:	ea000002 	b	a0008820 <number+0x94>
a0008814:	e3a01000 	mov	r1, #0	; 0x0
a0008818:	e50b1080 	str	r1, [fp, #-128]
a000881c:	ea000128 	b	a0008cc4 <number+0x538>
a0008820:	e59b300c 	ldr	r3, [fp, #12]
a0008824:	e2033001 	and	r3, r3, #1	; 0x1
a0008828:	e3530000 	cmp	r3, #0	; 0x0
a000882c:	0a000002 	beq	a000883c <number+0xb0>
a0008830:	e3a03030 	mov	r3, #48	; 0x30
a0008834:	e54b3081 	strb	r3, [fp, #-129]
a0008838:	ea000001 	b	a0008844 <number+0xb8>
a000883c:	e3a03020 	mov	r3, #32	; 0x20
a0008840:	e54b3081 	strb	r3, [fp, #-129]
a0008844:	e55b2081 	ldrb	r2, [fp, #-129]
a0008848:	e54b2029 	strb	r2, [fp, #-41]
a000884c:	e3a03000 	mov	r3, #0	; 0x0
a0008850:	e54b302a 	strb	r3, [fp, #-42]
a0008854:	e59b300c 	ldr	r3, [fp, #12]
a0008858:	e1a030a3 	mov	r3, r3, lsr #1
a000885c:	e2033001 	and	r3, r3, #1	; 0x1
a0008860:	e3530000 	cmp	r3, #0	; 0x0
a0008864:	0a000031 	beq	a0008930 <number+0x1a4>
a0008868:	e3e0300b 	mvn	r3, #11	; 0xb
a000886c:	e24bc018 	sub	ip, fp, #24	; 0x18
a0008870:	e08cc003 	add	ip, ip, r3
a0008874:	e50bc088 	str	ip, [fp, #-136]
a0008878:	e51b1088 	ldr	r1, [fp, #-136]
a000887c:	e5913004 	ldr	r3, [r1, #4]
a0008880:	e3530000 	cmp	r3, #0	; 0x0
a0008884:	ba000004 	blt	a000889c <number+0x110>
a0008888:	e51b2088 	ldr	r2, [fp, #-136]
a000888c:	e5923004 	ldr	r3, [r2, #4]
a0008890:	e3530000 	cmp	r3, #0	; 0x0
a0008894:	1a000010 	bne	a00088dc <number+0x150>
a0008898:	ea00000f 	b	a00088dc <number+0x150>
a000889c:	e3a0302d 	mov	r3, #45	; 0x2d
a00088a0:	e54b302a 	strb	r3, [fp, #-42]
a00088a4:	e3e0300b 	mvn	r3, #11	; 0xb
a00088a8:	e24bc018 	sub	ip, fp, #24	; 0x18
a00088ac:	e08c2003 	add	r2, ip, r3
a00088b0:	e3e0300b 	mvn	r3, #11	; 0xb
a00088b4:	e24b1018 	sub	r1, fp, #24	; 0x18
a00088b8:	e0813003 	add	r3, r1, r3
a00088bc:	e8930018 	ldmia	r3, {r3, r4}
a00088c0:	e2733000 	rsbs	r3, r3, #0	; 0x0
a00088c4:	e2e44000 	rsc	r4, r4, #0	; 0x0
a00088c8:	e8820018 	stmia	r2, {r3, r4}
a00088cc:	e59b3004 	ldr	r3, [fp, #4]
a00088d0:	e2433001 	sub	r3, r3, #1	; 0x1
a00088d4:	e58b3004 	str	r3, [fp, #4]
a00088d8:	ea000014 	b	a0008930 <number+0x1a4>
a00088dc:	e59b300c 	ldr	r3, [fp, #12]
a00088e0:	e1a03123 	mov	r3, r3, lsr #2
a00088e4:	e2033001 	and	r3, r3, #1	; 0x1
a00088e8:	e3530000 	cmp	r3, #0	; 0x0
a00088ec:	0a000005 	beq	a0008908 <number+0x17c>
a00088f0:	e3a0302b 	mov	r3, #43	; 0x2b
a00088f4:	e54b302a 	strb	r3, [fp, #-42]
a00088f8:	e59b3004 	ldr	r3, [fp, #4]
a00088fc:	e2433001 	sub	r3, r3, #1	; 0x1
a0008900:	e58b3004 	str	r3, [fp, #4]
a0008904:	ea000009 	b	a0008930 <number+0x1a4>
a0008908:	e59b300c 	ldr	r3, [fp, #12]
a000890c:	e1a031a3 	mov	r3, r3, lsr #3
a0008910:	e2033001 	and	r3, r3, #1	; 0x1
a0008914:	e3530000 	cmp	r3, #0	; 0x0
a0008918:	0a000004 	beq	a0008930 <number+0x1a4>
a000891c:	e3a03020 	mov	r3, #32	; 0x20
a0008920:	e54b302a 	strb	r3, [fp, #-42]
a0008924:	e59b3004 	ldr	r3, [fp, #4]
a0008928:	e2433001 	sub	r3, r3, #1	; 0x1
a000892c:	e58b3004 	str	r3, [fp, #4]
a0008930:	e59b300c 	ldr	r3, [fp, #12]
a0008934:	e1a032a3 	mov	r3, r3, lsr #5
a0008938:	e2033001 	and	r3, r3, #1	; 0x1
a000893c:	e3530000 	cmp	r3, #0	; 0x0
a0008940:	0a00000c 	beq	a0008978 <number+0x1ec>
a0008944:	e51b3028 	ldr	r3, [fp, #-40]
a0008948:	e3530010 	cmp	r3, #16	; 0x10
a000894c:	1a000003 	bne	a0008960 <number+0x1d4>
a0008950:	e59b3004 	ldr	r3, [fp, #4]
a0008954:	e2433002 	sub	r3, r3, #2	; 0x2
a0008958:	e58b3004 	str	r3, [fp, #4]
a000895c:	ea000005 	b	a0008978 <number+0x1ec>
a0008960:	e51b3028 	ldr	r3, [fp, #-40]
a0008964:	e3530008 	cmp	r3, #8	; 0x8
a0008968:	1a000002 	bne	a0008978 <number+0x1ec>
a000896c:	e59b3004 	ldr	r3, [fp, #4]
a0008970:	e2433001 	sub	r3, r3, #1	; 0x1
a0008974:	e58b3004 	str	r3, [fp, #4]
a0008978:	e3a03000 	mov	r3, #0	; 0x0
a000897c:	e50b3078 	str	r3, [fp, #-120]
a0008980:	e3e0300b 	mvn	r3, #11	; 0xb
a0008984:	e24bc018 	sub	ip, fp, #24	; 0x18
a0008988:	e08c2003 	add	r2, ip, r3
a000898c:	e5923000 	ldr	r3, [r2]
a0008990:	e5922004 	ldr	r2, [r2, #4]
a0008994:	e1833002 	orr	r3, r3, r2
a0008998:	e3530000 	cmp	r3, #0	; 0x0
a000899c:	1a00000b 	bne	a00089d0 <number+0x244>
a00089a0:	e24b0078 	sub	r0, fp, #120	; 0x78
a00089a4:	e5902000 	ldr	r2, [r0]
a00089a8:	e3e01057 	mvn	r1, #87	; 0x57
a00089ac:	e1a03002 	mov	r3, r2
a00089b0:	e24bc018 	sub	ip, fp, #24	; 0x18
a00089b4:	e083300c 	add	r3, r3, ip
a00089b8:	e0831001 	add	r1, r3, r1
a00089bc:	e3a03030 	mov	r3, #48	; 0x30
a00089c0:	e5c13000 	strb	r3, [r1]
a00089c4:	e2822001 	add	r2, r2, #1	; 0x1
a00089c8:	e5802000 	str	r2, [r0]
a00089cc:	ea00002b 	b	a0008a80 <number+0x2f4>
a00089d0:	e3e0300b 	mvn	r3, #11	; 0xb
a00089d4:	e24b1018 	sub	r1, fp, #24	; 0x18
a00089d8:	e0812003 	add	r2, r1, r3
a00089dc:	e5923000 	ldr	r3, [r2]
a00089e0:	e5922004 	ldr	r2, [r2, #4]
a00089e4:	e1833002 	orr	r3, r3, r2
a00089e8:	e3530000 	cmp	r3, #0	; 0x0
a00089ec:	0a000023 	beq	a0008a80 <number+0x2f4>
a00089f0:	e24b5078 	sub	r5, fp, #120	; 0x78
a00089f4:	e5954000 	ldr	r4, [r5]
a00089f8:	e3e02057 	mvn	r2, #87	; 0x57
a00089fc:	e1a03004 	mov	r3, r4
a0008a00:	e24bc018 	sub	ip, fp, #24	; 0x18
a0008a04:	e083300c 	add	r3, r3, ip
a0008a08:	e0836002 	add	r6, r3, r2
a0008a0c:	e3e0300b 	mvn	r3, #11	; 0xb
a0008a10:	e24b1018 	sub	r1, fp, #24	; 0x18
a0008a14:	e0813003 	add	r3, r1, r3
a0008a18:	e5933000 	ldr	r3, [r3]
a0008a1c:	e1a00003 	mov	r0, r3
a0008a20:	e51b1028 	ldr	r1, [fp, #-40]
a0008a24:	eb0009ca 	bl	a000b154 <__umodsi3>
a0008a28:	e1a03000 	mov	r3, r0
a0008a2c:	e50b307c 	str	r3, [fp, #-124]
a0008a30:	e2844001 	add	r4, r4, #1	; 0x1
a0008a34:	e5854000 	str	r4, [r5]
a0008a38:	e3e0300b 	mvn	r3, #11	; 0xb
a0008a3c:	e24b2018 	sub	r2, fp, #24	; 0x18
a0008a40:	e0825003 	add	r5, r2, r3
a0008a44:	e3e0300b 	mvn	r3, #11	; 0xb
a0008a48:	e24bc018 	sub	ip, fp, #24	; 0x18
a0008a4c:	e08c3003 	add	r3, ip, r3
a0008a50:	e5930000 	ldr	r0, [r3]
a0008a54:	e51b1028 	ldr	r1, [fp, #-40]
a0008a58:	eb000997 	bl	a000b0bc <__udivsi3>
a0008a5c:	e1a03000 	mov	r3, r0
a0008a60:	e3a04000 	mov	r4, #0	; 0x0
a0008a64:	e8850018 	stmia	r5, {r3, r4}
a0008a68:	e51b207c 	ldr	r2, [fp, #-124]
a0008a6c:	e51b3074 	ldr	r3, [fp, #-116]
a0008a70:	e0823003 	add	r3, r2, r3
a0008a74:	e5d33000 	ldrb	r3, [r3]
a0008a78:	e5c63000 	strb	r3, [r6]
a0008a7c:	eaffffd3 	b	a00089d0 <number+0x244>
a0008a80:	e51b2078 	ldr	r2, [fp, #-120]
a0008a84:	e59b3008 	ldr	r3, [fp, #8]
a0008a88:	e1520003 	cmp	r2, r3
a0008a8c:	da000001 	ble	a0008a98 <number+0x30c>
a0008a90:	e51b3078 	ldr	r3, [fp, #-120]
a0008a94:	e58b3008 	str	r3, [fp, #8]
a0008a98:	e59b2004 	ldr	r2, [fp, #4]
a0008a9c:	e59b3008 	ldr	r3, [fp, #8]
a0008aa0:	e0633002 	rsb	r3, r3, r2
a0008aa4:	e58b3004 	str	r3, [fp, #4]
a0008aa8:	e59b300c 	ldr	r3, [fp, #12]
a0008aac:	e2033011 	and	r3, r3, #17	; 0x11
a0008ab0:	e3530000 	cmp	r3, #0	; 0x0
a0008ab4:	1a00000d 	bne	a0008af0 <number+0x364>
a0008ab8:	e59b3004 	ldr	r3, [fp, #4]
a0008abc:	e1a02003 	mov	r2, r3
a0008ac0:	e2433001 	sub	r3, r3, #1	; 0x1
a0008ac4:	e58b3004 	str	r3, [fp, #4]
a0008ac8:	e3520000 	cmp	r2, #0	; 0x0
a0008acc:	da000007 	ble	a0008af0 <number+0x364>
a0008ad0:	e24b001c 	sub	r0, fp, #28	; 0x1c
a0008ad4:	e5902000 	ldr	r2, [r0]
a0008ad8:	e1a01002 	mov	r1, r2
a0008adc:	e3a03020 	mov	r3, #32	; 0x20
a0008ae0:	e5c13000 	strb	r3, [r1]
a0008ae4:	e2822001 	add	r2, r2, #1	; 0x1
a0008ae8:	e5802000 	str	r2, [r0]
a0008aec:	eafffff1 	b	a0008ab8 <number+0x32c>
a0008af0:	e55b302a 	ldrb	r3, [fp, #-42]
a0008af4:	e3530000 	cmp	r3, #0	; 0x0
a0008af8:	0a000006 	beq	a0008b18 <number+0x38c>
a0008afc:	e24b001c 	sub	r0, fp, #28	; 0x1c
a0008b00:	e5903000 	ldr	r3, [r0]
a0008b04:	e1a01003 	mov	r1, r3
a0008b08:	e55b202a 	ldrb	r2, [fp, #-42]
a0008b0c:	e5c12000 	strb	r2, [r1]
a0008b10:	e2833001 	add	r3, r3, #1	; 0x1
a0008b14:	e5803000 	str	r3, [r0]
a0008b18:	e59b300c 	ldr	r3, [fp, #12]
a0008b1c:	e1a032a3 	mov	r3, r3, lsr #5
a0008b20:	e2033001 	and	r3, r3, #1	; 0x1
a0008b24:	e3530000 	cmp	r3, #0	; 0x0
a0008b28:	0a00001e 	beq	a0008ba8 <number+0x41c>
a0008b2c:	e51b3028 	ldr	r3, [fp, #-40]
a0008b30:	e3530008 	cmp	r3, #8	; 0x8
a0008b34:	1a000007 	bne	a0008b58 <number+0x3cc>
a0008b38:	e24b001c 	sub	r0, fp, #28	; 0x1c
a0008b3c:	e5902000 	ldr	r2, [r0]
a0008b40:	e1a01002 	mov	r1, r2
a0008b44:	e3a03030 	mov	r3, #48	; 0x30
a0008b48:	e5c13000 	strb	r3, [r1]
a0008b4c:	e2822001 	add	r2, r2, #1	; 0x1
a0008b50:	e5802000 	str	r2, [r0]
a0008b54:	ea000013 	b	a0008ba8 <number+0x41c>
a0008b58:	e51b3028 	ldr	r3, [fp, #-40]
a0008b5c:	e3530010 	cmp	r3, #16	; 0x10
a0008b60:	1a000010 	bne	a0008ba8 <number+0x41c>
a0008b64:	e24b001c 	sub	r0, fp, #28	; 0x1c
a0008b68:	e5902000 	ldr	r2, [r0]
a0008b6c:	e1a01002 	mov	r1, r2
a0008b70:	e3a03030 	mov	r3, #48	; 0x30
a0008b74:	e5c13000 	strb	r3, [r1]
a0008b78:	e2822001 	add	r2, r2, #1	; 0x1
a0008b7c:	e5802000 	str	r2, [r0]
a0008b80:	e24b001c 	sub	r0, fp, #28	; 0x1c
a0008b84:	e5902000 	ldr	r2, [r0]
a0008b88:	e3a01021 	mov	r1, #33	; 0x21
a0008b8c:	e51b3074 	ldr	r3, [fp, #-116]
a0008b90:	e0813003 	add	r3, r1, r3
a0008b94:	e1a01002 	mov	r1, r2
a0008b98:	e5d33000 	ldrb	r3, [r3]
a0008b9c:	e5c13000 	strb	r3, [r1]
a0008ba0:	e2822001 	add	r2, r2, #1	; 0x1
a0008ba4:	e5802000 	str	r2, [r0]
a0008ba8:	e59b300c 	ldr	r3, [fp, #12]
a0008bac:	e1a03223 	mov	r3, r3, lsr #4
a0008bb0:	e2033001 	and	r3, r3, #1	; 0x1
a0008bb4:	e3530000 	cmp	r3, #0	; 0x0
a0008bb8:	1a00000d 	bne	a0008bf4 <number+0x468>
a0008bbc:	e59b3004 	ldr	r3, [fp, #4]
a0008bc0:	e1a02003 	mov	r2, r3
a0008bc4:	e2433001 	sub	r3, r3, #1	; 0x1
a0008bc8:	e58b3004 	str	r3, [fp, #4]
a0008bcc:	e3520000 	cmp	r2, #0	; 0x0
a0008bd0:	da000007 	ble	a0008bf4 <number+0x468>
a0008bd4:	e24b001c 	sub	r0, fp, #28	; 0x1c
a0008bd8:	e5903000 	ldr	r3, [r0]
a0008bdc:	e1a01003 	mov	r1, r3
a0008be0:	e55b2029 	ldrb	r2, [fp, #-41]
a0008be4:	e5c12000 	strb	r2, [r1]
a0008be8:	e2833001 	add	r3, r3, #1	; 0x1
a0008bec:	e5803000 	str	r3, [r0]
a0008bf0:	eafffff1 	b	a0008bbc <number+0x430>
a0008bf4:	e28b2008 	add	r2, fp, #8	; 0x8
a0008bf8:	e5923000 	ldr	r3, [r2]
a0008bfc:	e1a01003 	mov	r1, r3
a0008c00:	e2433001 	sub	r3, r3, #1	; 0x1
a0008c04:	e5823000 	str	r3, [r2]
a0008c08:	e51b3078 	ldr	r3, [fp, #-120]
a0008c0c:	e1510003 	cmp	r1, r3
a0008c10:	da000007 	ble	a0008c34 <number+0x4a8>
a0008c14:	e24b001c 	sub	r0, fp, #28	; 0x1c
a0008c18:	e5902000 	ldr	r2, [r0]
a0008c1c:	e1a01002 	mov	r1, r2
a0008c20:	e3a03030 	mov	r3, #48	; 0x30
a0008c24:	e5c13000 	strb	r3, [r1]
a0008c28:	e2822001 	add	r2, r2, #1	; 0x1
a0008c2c:	e5802000 	str	r2, [r0]
a0008c30:	eaffffef 	b	a0008bf4 <number+0x468>
a0008c34:	e24b3078 	sub	r3, fp, #120	; 0x78
a0008c38:	e5932000 	ldr	r2, [r3]
a0008c3c:	e1a01002 	mov	r1, r2
a0008c40:	e2422001 	sub	r2, r2, #1	; 0x1
a0008c44:	e5832000 	str	r2, [r3]
a0008c48:	e3510000 	cmp	r1, #0	; 0x0
a0008c4c:	da00000c 	ble	a0008c84 <number+0x4f8>
a0008c50:	e24b001c 	sub	r0, fp, #28	; 0x1c
a0008c54:	e5902000 	ldr	r2, [r0]
a0008c58:	e3e01057 	mvn	r1, #87	; 0x57
a0008c5c:	e51b3078 	ldr	r3, [fp, #-120]
a0008c60:	e24bc018 	sub	ip, fp, #24	; 0x18
a0008c64:	e08c3003 	add	r3, ip, r3
a0008c68:	e0833001 	add	r3, r3, r1
a0008c6c:	e1a01002 	mov	r1, r2
a0008c70:	e5d33000 	ldrb	r3, [r3]
a0008c74:	e5c13000 	strb	r3, [r1]
a0008c78:	e2822001 	add	r2, r2, #1	; 0x1
a0008c7c:	e5802000 	str	r2, [r0]
a0008c80:	eaffffeb 	b	a0008c34 <number+0x4a8>
a0008c84:	e59b3004 	ldr	r3, [fp, #4]
a0008c88:	e1a02003 	mov	r2, r3
a0008c8c:	e2433001 	sub	r3, r3, #1	; 0x1
a0008c90:	e58b3004 	str	r3, [fp, #4]
a0008c94:	e3520000 	cmp	r2, #0	; 0x0
a0008c98:	da000007 	ble	a0008cbc <number+0x530>
a0008c9c:	e24b001c 	sub	r0, fp, #28	; 0x1c
a0008ca0:	e5902000 	ldr	r2, [r0]
a0008ca4:	e1a01002 	mov	r1, r2
a0008ca8:	e3a03020 	mov	r3, #32	; 0x20
a0008cac:	e5c13000 	strb	r3, [r1]
a0008cb0:	e2822001 	add	r2, r2, #1	; 0x1
a0008cb4:	e5802000 	str	r2, [r0]
a0008cb8:	eafffff1 	b	a0008c84 <number+0x4f8>
a0008cbc:	e51b301c 	ldr	r3, [fp, #-28]
a0008cc0:	e50b3080 	str	r3, [fp, #-128]
a0008cc4:	e51b0080 	ldr	r0, [fp, #-128]
a0008cc8:	e24bd018 	sub	sp, fp, #24	; 0x18
a0008ccc:	e89da870 	ldmia	sp, {r4, r5, r6, fp, sp, pc}
a0008cd0:	a000bdc0 	andge	fp, r0, r0, asr #27
a0008cd4:	a000bde8 	andge	fp, r0, r8, ror #27

a0008cd8 <vsprintf>:
a0008cd8:	e1a0c00d 	mov	ip, sp
a0008cdc:	e92dd800 	stmdb	sp!, {fp, ip, lr, pc}
a0008ce0:	e24cb004 	sub	fp, ip, #4	; 0x4
a0008ce4:	e24dd044 	sub	sp, sp, #68	; 0x44
a0008ce8:	e50b0010 	str	r0, [fp, #-16]
a0008cec:	e50b1014 	str	r1, [fp, #-20]
a0008cf0:	e50b2018 	str	r2, [fp, #-24]
a0008cf4:	e51b3010 	ldr	r3, [fp, #-16]
a0008cf8:	e50b302c 	str	r3, [fp, #-44]
a0008cfc:	e51b3014 	ldr	r3, [fp, #-20]
a0008d00:	e5d33000 	ldrb	r3, [r3]
a0008d04:	e3530000 	cmp	r3, #0	; 0x0
a0008d08:	0a0001d4 	beq	a0009460 <.text+0x1460>
a0008d0c:	e51b3014 	ldr	r3, [fp, #-20]
a0008d10:	e5d33000 	ldrb	r3, [r3]
a0008d14:	e3530025 	cmp	r3, #37	; 0x25
a0008d18:	0a000008 	beq	a0008d40 <vsprintf+0x68>
a0008d1c:	e24b002c 	sub	r0, fp, #44	; 0x2c
a0008d20:	e5902000 	ldr	r2, [r0]
a0008d24:	e51b3014 	ldr	r3, [fp, #-20]
a0008d28:	e1a01002 	mov	r1, r2
a0008d2c:	e5d33000 	ldrb	r3, [r3]
a0008d30:	e5c13000 	strb	r3, [r1]
a0008d34:	e2822001 	add	r2, r2, #1	; 0x1
a0008d38:	e5802000 	str	r2, [r0]
a0008d3c:	ea0001c3 	b	a0009450 <.text+0x1450>
a0008d40:	e3a03000 	mov	r3, #0	; 0x0
a0008d44:	e50b3034 	str	r3, [fp, #-52]
a0008d48:	e51b3014 	ldr	r3, [fp, #-20]
a0008d4c:	e2833001 	add	r3, r3, #1	; 0x1
a0008d50:	e50b3014 	str	r3, [fp, #-20]
a0008d54:	e51b3014 	ldr	r3, [fp, #-20]
a0008d58:	e5d33000 	ldrb	r3, [r3]
a0008d5c:	e2433020 	sub	r3, r3, #32	; 0x20
a0008d60:	e3530010 	cmp	r3, #16	; 0x10
a0008d64:	979ff103 	ldrls	pc, [pc, r3, lsl #2]
a0008d68:	ea000024 	b	a0008e00 <.text+0xe00>
a0008d6c:	a0008dd0 	ldrged	r8, [r0], -r0
a0008d70:	a0008e00 	andge	r8, r0, r0, lsl #28
a0008d74:	a0008e00 	andge	r8, r0, r0, lsl #28
a0008d78:	a0008de0 	andge	r8, r0, r0, ror #27
a0008d7c:	a0008e00 	andge	r8, r0, r0, lsl #28
a0008d80:	a0008e00 	andge	r8, r0, r0, lsl #28
a0008d84:	a0008e00 	andge	r8, r0, r0, lsl #28
a0008d88:	a0008e00 	andge	r8, r0, r0, lsl #28
a0008d8c:	a0008e00 	andge	r8, r0, r0, lsl #28
a0008d90:	a0008e00 	andge	r8, r0, r0, lsl #28
a0008d94:	a0008e00 	andge	r8, r0, r0, lsl #28
a0008d98:	a0008dc0 	andge	r8, r0, r0, asr #27
a0008d9c:	a0008e00 	andge	r8, r0, r0, lsl #28
a0008da0:	a0008db0 	strgeh	r8, [r0], -r0
a0008da4:	a0008e00 	andge	r8, r0, r0, lsl #28
a0008da8:	a0008e00 	andge	r8, r0, r0, lsl #28
a0008dac:	a0008df0 	strged	r8, [r0], -r0
a0008db0:	e51b3034 	ldr	r3, [fp, #-52]
a0008db4:	e3833010 	orr	r3, r3, #16	; 0x10
a0008db8:	e50b3034 	str	r3, [fp, #-52]
a0008dbc:	eaffffe1 	b	a0008d48 <vsprintf+0x70>
a0008dc0:	e51b3034 	ldr	r3, [fp, #-52]
a0008dc4:	e3833004 	orr	r3, r3, #4	; 0x4
a0008dc8:	e50b3034 	str	r3, [fp, #-52]
a0008dcc:	eaffffdd 	b	a0008d48 <vsprintf+0x70>
a0008dd0:	e51b3034 	ldr	r3, [fp, #-52]
a0008dd4:	e3833008 	orr	r3, r3, #8	; 0x8
a0008dd8:	e50b3034 	str	r3, [fp, #-52]
a0008ddc:	eaffffd9 	b	a0008d48 <vsprintf+0x70>
a0008de0:	e51b3034 	ldr	r3, [fp, #-52]
a0008de4:	e3833020 	orr	r3, r3, #32	; 0x20
a0008de8:	e50b3034 	str	r3, [fp, #-52]
a0008dec:	eaffffd5 	b	a0008d48 <vsprintf+0x70>
a0008df0:	e51b3034 	ldr	r3, [fp, #-52]
a0008df4:	e3833001 	orr	r3, r3, #1	; 0x1
a0008df8:	e50b3034 	str	r3, [fp, #-52]
a0008dfc:	eaffffd1 	b	a0008d48 <vsprintf+0x70>
a0008e00:	e3e03000 	mvn	r3, #0	; 0x0
a0008e04:	e50b3038 	str	r3, [fp, #-56]
a0008e08:	e59f2674 	ldr	r2, [pc, #1652]	; a0009484 <.text+0x1484>
a0008e0c:	e51b3014 	ldr	r3, [fp, #-20]
a0008e10:	e5d33000 	ldrb	r3, [r3]
a0008e14:	e7d23003 	ldrb	r3, [r2, r3]
a0008e18:	e1a03123 	mov	r3, r3, lsr #2
a0008e1c:	e2033001 	and	r3, r3, #1	; 0x1
a0008e20:	e3530000 	cmp	r3, #0	; 0x0
a0008e24:	0a000005 	beq	a0008e40 <.text+0xe40>
a0008e28:	e24b3014 	sub	r3, fp, #20	; 0x14
a0008e2c:	e1a00003 	mov	r0, r3
a0008e30:	ebfffe33 	bl	a0008704 <skip_atoi>
a0008e34:	e1a03000 	mov	r3, r0
a0008e38:	e50b3038 	str	r3, [fp, #-56]
a0008e3c:	ea000014 	b	a0008e94 <.text+0xe94>
a0008e40:	e51b3014 	ldr	r3, [fp, #-20]
a0008e44:	e5d33000 	ldrb	r3, [r3]
a0008e48:	e353002a 	cmp	r3, #42	; 0x2a
a0008e4c:	1a000010 	bne	a0008e94 <.text+0xe94>
a0008e50:	e51b3014 	ldr	r3, [fp, #-20]
a0008e54:	e2833001 	add	r3, r3, #1	; 0x1
a0008e58:	e50b3014 	str	r3, [fp, #-20]
a0008e5c:	e51b3018 	ldr	r3, [fp, #-24]
a0008e60:	e2833004 	add	r3, r3, #4	; 0x4
a0008e64:	e50b3018 	str	r3, [fp, #-24]
a0008e68:	e5133004 	ldr	r3, [r3, #-4]
a0008e6c:	e50b3038 	str	r3, [fp, #-56]
a0008e70:	e51b3038 	ldr	r3, [fp, #-56]
a0008e74:	e3530000 	cmp	r3, #0	; 0x0
a0008e78:	aa000005 	bge	a0008e94 <.text+0xe94>
a0008e7c:	e51b3038 	ldr	r3, [fp, #-56]
a0008e80:	e2633000 	rsb	r3, r3, #0	; 0x0
a0008e84:	e50b3038 	str	r3, [fp, #-56]
a0008e88:	e51b3034 	ldr	r3, [fp, #-52]
a0008e8c:	e3833010 	orr	r3, r3, #16	; 0x10
a0008e90:	e50b3034 	str	r3, [fp, #-52]
a0008e94:	e3e03000 	mvn	r3, #0	; 0x0
a0008e98:	e50b303c 	str	r3, [fp, #-60]
a0008e9c:	e51b3014 	ldr	r3, [fp, #-20]
a0008ea0:	e5d33000 	ldrb	r3, [r3]
a0008ea4:	e353002e 	cmp	r3, #46	; 0x2e
a0008ea8:	1a000021 	bne	a0008f34 <.text+0xf34>
a0008eac:	e51b3014 	ldr	r3, [fp, #-20]
a0008eb0:	e2833001 	add	r3, r3, #1	; 0x1
a0008eb4:	e50b3014 	str	r3, [fp, #-20]
a0008eb8:	e59f25c4 	ldr	r2, [pc, #1476]	; a0009484 <.text+0x1484>
a0008ebc:	e51b3014 	ldr	r3, [fp, #-20]
a0008ec0:	e5d33000 	ldrb	r3, [r3]
a0008ec4:	e7d23003 	ldrb	r3, [r2, r3]
a0008ec8:	e1a03123 	mov	r3, r3, lsr #2
a0008ecc:	e2033001 	and	r3, r3, #1	; 0x1
a0008ed0:	e3530000 	cmp	r3, #0	; 0x0
a0008ed4:	0a000005 	beq	a0008ef0 <.text+0xef0>
a0008ed8:	e24b3014 	sub	r3, fp, #20	; 0x14
a0008edc:	e1a00003 	mov	r0, r3
a0008ee0:	ebfffe07 	bl	a0008704 <skip_atoi>
a0008ee4:	e1a03000 	mov	r3, r0
a0008ee8:	e50b303c 	str	r3, [fp, #-60]
a0008eec:	ea00000b 	b	a0008f20 <.text+0xf20>
a0008ef0:	e51b3014 	ldr	r3, [fp, #-20]
a0008ef4:	e5d33000 	ldrb	r3, [r3]
a0008ef8:	e353002a 	cmp	r3, #42	; 0x2a
a0008efc:	1a000007 	bne	a0008f20 <.text+0xf20>
a0008f00:	e51b3014 	ldr	r3, [fp, #-20]
a0008f04:	e2833001 	add	r3, r3, #1	; 0x1
a0008f08:	e50b3014 	str	r3, [fp, #-20]
a0008f0c:	e51b3018 	ldr	r3, [fp, #-24]
a0008f10:	e2833004 	add	r3, r3, #4	; 0x4
a0008f14:	e50b3018 	str	r3, [fp, #-24]
a0008f18:	e5133004 	ldr	r3, [r3, #-4]
a0008f1c:	e50b303c 	str	r3, [fp, #-60]
a0008f20:	e51b303c 	ldr	r3, [fp, #-60]
a0008f24:	e3530000 	cmp	r3, #0	; 0x0
a0008f28:	aa000001 	bge	a0008f34 <.text+0xf34>
a0008f2c:	e3a03000 	mov	r3, #0	; 0x0
a0008f30:	e50b303c 	str	r3, [fp, #-60]
a0008f34:	e3e03000 	mvn	r3, #0	; 0x0
a0008f38:	e50b3040 	str	r3, [fp, #-64]
a0008f3c:	e51b3014 	ldr	r3, [fp, #-20]
a0008f40:	e5d33000 	ldrb	r3, [r3]
a0008f44:	e3530068 	cmp	r3, #104	; 0x68
a0008f48:	0a000008 	beq	a0008f70 <.text+0xf70>
a0008f4c:	e51b3014 	ldr	r3, [fp, #-20]
a0008f50:	e5d33000 	ldrb	r3, [r3]
a0008f54:	e353006c 	cmp	r3, #108	; 0x6c
a0008f58:	0a000004 	beq	a0008f70 <.text+0xf70>
a0008f5c:	e51b3014 	ldr	r3, [fp, #-20]
a0008f60:	e5d33000 	ldrb	r3, [r3]
a0008f64:	e353004c 	cmp	r3, #76	; 0x4c
a0008f68:	0a000000 	beq	a0008f70 <.text+0xf70>
a0008f6c:	ea000005 	b	a0008f88 <.text+0xf88>
a0008f70:	e51b3014 	ldr	r3, [fp, #-20]
a0008f74:	e5d33000 	ldrb	r3, [r3]
a0008f78:	e50b3040 	str	r3, [fp, #-64]
a0008f7c:	e51b3014 	ldr	r3, [fp, #-20]
a0008f80:	e2833001 	add	r3, r3, #1	; 0x1
a0008f84:	e50b3014 	str	r3, [fp, #-20]
a0008f88:	e3a0300a 	mov	r3, #10	; 0xa
a0008f8c:	e50b3028 	str	r3, [fp, #-40]
a0008f90:	e51b3014 	ldr	r3, [fp, #-20]
a0008f94:	e5d33000 	ldrb	r3, [r3]
a0008f98:	e2433058 	sub	r3, r3, #88	; 0x58
a0008f9c:	e3530020 	cmp	r3, #32	; 0x20
a0008fa0:	979ff103 	ldrls	pc, [pc, r3, lsl #2]
a0008fa4:	ea0000d2 	b	a00092f4 <.text+0x12f4>
a0008fa8:	a00092cc 	andge	r9, r0, ip, asr #5
a0008fac:	a00092f4 	strged	r9, [r0], -r4
a0008fb0:	a00092f4 	strged	r9, [r0], -r4
a0008fb4:	a00092f4 	strged	r9, [r0], -r4
a0008fb8:	a00092f4 	strged	r9, [r0], -r4
a0008fbc:	a00092f4 	strged	r9, [r0], -r4
a0008fc0:	a00092f4 	strged	r9, [r0], -r4
a0008fc4:	a00092f4 	strged	r9, [r0], -r4
a0008fc8:	a00092f4 	strged	r9, [r0], -r4
a0008fcc:	a00092f4 	strged	r9, [r0], -r4
a0008fd0:	a00092f4 	strged	r9, [r0], -r4
a0008fd4:	a000902c 	andge	r9, r0, ip, lsr #32
a0008fd8:	a00092e4 	andge	r9, r0, r4, ror #5
a0008fdc:	a00092f4 	strged	r9, [r0], -r4
a0008fe0:	a00092f4 	strged	r9, [r0], -r4
a0008fe4:	a00092f4 	strged	r9, [r0], -r4
a0008fe8:	a00092f4 	strged	r9, [r0], -r4
a0008fec:	a00092e4 	andge	r9, r0, r4, ror #5
a0008ff0:	a00092f4 	strged	r9, [r0], -r4
a0008ff4:	a00092f4 	strged	r9, [r0], -r4
a0008ff8:	a00092f4 	strged	r9, [r0], -r4
a0008ffc:	a00092f4 	strged	r9, [r0], -r4
a0009000:	a000925c 	andge	r9, r0, ip, asr r2
a0009004:	a00092c0 	andge	r9, r0, r0, asr #5
a0009008:	a00091f4 	strged	r9, [r0], -r4
a000900c:	a00092f4 	strged	r9, [r0], -r4
a0009010:	a00092f4 	strged	r9, [r0], -r4
a0009014:	a00090d4 	ldrged	r9, [r0], -r4
a0009018:	a00092f4 	strged	r9, [r0], -r4
a000901c:	a0009364 	andge	r9, r0, r4, ror #6
a0009020:	a00092f4 	strged	r9, [r0], -r4
a0009024:	a00092f4 	strged	r9, [r0], -r4
a0009028:	a00092d8 	ldrged	r9, [r0], -r8
a000902c:	e51b3034 	ldr	r3, [fp, #-52]
a0009030:	e1a03223 	mov	r3, r3, lsr #4
a0009034:	e2033001 	and	r3, r3, #1	; 0x1
a0009038:	e3530000 	cmp	r3, #0	; 0x0
a000903c:	1a00000c 	bne	a0009074 <.text+0x1074>
a0009040:	e51b3038 	ldr	r3, [fp, #-56]
a0009044:	e2433001 	sub	r3, r3, #1	; 0x1
a0009048:	e50b3038 	str	r3, [fp, #-56]
a000904c:	e3530000 	cmp	r3, #0	; 0x0
a0009050:	da000007 	ble	a0009074 <.text+0x1074>
a0009054:	e24b002c 	sub	r0, fp, #44	; 0x2c
a0009058:	e5902000 	ldr	r2, [r0]
a000905c:	e1a01002 	mov	r1, r2
a0009060:	e3a03020 	mov	r3, #32	; 0x20
a0009064:	e5c13000 	strb	r3, [r1]
a0009068:	e2822001 	add	r2, r2, #1	; 0x1
a000906c:	e5802000 	str	r2, [r0]
a0009070:	eafffff2 	b	a0009040 <.text+0x1040>
a0009074:	e24b002c 	sub	r0, fp, #44	; 0x2c
a0009078:	e5902000 	ldr	r2, [r0]
a000907c:	e51b3018 	ldr	r3, [fp, #-24]
a0009080:	e2833004 	add	r3, r3, #4	; 0x4
a0009084:	e50b3018 	str	r3, [fp, #-24]
a0009088:	e5133004 	ldr	r3, [r3, #-4]
a000908c:	e1a01003 	mov	r1, r3
a0009090:	e1a03002 	mov	r3, r2
a0009094:	e5c31000 	strb	r1, [r3]
a0009098:	e2822001 	add	r2, r2, #1	; 0x1
a000909c:	e5802000 	str	r2, [r0]
a00090a0:	e51b3038 	ldr	r3, [fp, #-56]
a00090a4:	e2433001 	sub	r3, r3, #1	; 0x1
a00090a8:	e50b3038 	str	r3, [fp, #-56]
a00090ac:	e3530000 	cmp	r3, #0	; 0x0
a00090b0:	da0000e6 	ble	a0009450 <.text+0x1450>
a00090b4:	e24b002c 	sub	r0, fp, #44	; 0x2c
a00090b8:	e5902000 	ldr	r2, [r0]
a00090bc:	e1a01002 	mov	r1, r2
a00090c0:	e3a03020 	mov	r3, #32	; 0x20
a00090c4:	e5c13000 	strb	r3, [r1]
a00090c8:	e2822001 	add	r2, r2, #1	; 0x1
a00090cc:	e5802000 	str	r2, [r0]
a00090d0:	eafffff2 	b	a00090a0 <.text+0x10a0>
a00090d4:	e51b3018 	ldr	r3, [fp, #-24]
a00090d8:	e2833004 	add	r3, r3, #4	; 0x4
a00090dc:	e50b3018 	str	r3, [fp, #-24]
a00090e0:	e5133004 	ldr	r3, [r3, #-4]
a00090e4:	e50b3030 	str	r3, [fp, #-48]
a00090e8:	e51b3030 	ldr	r3, [fp, #-48]
a00090ec:	e3530000 	cmp	r3, #0	; 0x0
a00090f0:	1a000001 	bne	a00090fc <.text+0x10fc>
a00090f4:	e59f338c 	ldr	r3, [pc, #908]	; a0009488 <.text+0x1488>
a00090f8:	e50b3030 	str	r3, [fp, #-48]
a00090fc:	e51b0030 	ldr	r0, [fp, #-48]
a0009100:	e51b103c 	ldr	r1, [fp, #-60]
a0009104:	eb000481 	bl	a000a310 <strnlen>
a0009108:	e50b001c 	str	r0, [fp, #-28]
a000910c:	e51b3034 	ldr	r3, [fp, #-52]
a0009110:	e1a03223 	mov	r3, r3, lsr #4
a0009114:	e2033001 	and	r3, r3, #1	; 0x1
a0009118:	e3530000 	cmp	r3, #0	; 0x0
a000911c:	1a00000f 	bne	a0009160 <.text+0x1160>
a0009120:	e24b2038 	sub	r2, fp, #56	; 0x38
a0009124:	e5923000 	ldr	r3, [r2]
a0009128:	e1a01003 	mov	r1, r3
a000912c:	e2433001 	sub	r3, r3, #1	; 0x1
a0009130:	e5823000 	str	r3, [r2]
a0009134:	e51b301c 	ldr	r3, [fp, #-28]
a0009138:	e1510003 	cmp	r1, r3
a000913c:	da000007 	ble	a0009160 <.text+0x1160>
a0009140:	e24b002c 	sub	r0, fp, #44	; 0x2c
a0009144:	e5902000 	ldr	r2, [r0]
a0009148:	e1a01002 	mov	r1, r2
a000914c:	e3a03020 	mov	r3, #32	; 0x20
a0009150:	e5c13000 	strb	r3, [r1]
a0009154:	e2822001 	add	r2, r2, #1	; 0x1
a0009158:	e5802000 	str	r2, [r0]
a000915c:	eaffffef 	b	a0009120 <.text+0x1120>
a0009160:	e3a03000 	mov	r3, #0	; 0x0
a0009164:	e50b3024 	str	r3, [fp, #-36]
a0009168:	e51b2024 	ldr	r2, [fp, #-36]
a000916c:	e51b301c 	ldr	r3, [fp, #-28]
a0009170:	e1520003 	cmp	r2, r3
a0009174:	aa00000e 	bge	a00091b4 <.text+0x11b4>
a0009178:	e24bc02c 	sub	ip, fp, #44	; 0x2c
a000917c:	e59c2000 	ldr	r2, [ip]
a0009180:	e24b1030 	sub	r1, fp, #48	; 0x30
a0009184:	e5913000 	ldr	r3, [r1]
a0009188:	e5d30000 	ldrb	r0, [r3]
a000918c:	e2833001 	add	r3, r3, #1	; 0x1
a0009190:	e5813000 	str	r3, [r1]
a0009194:	e1a03002 	mov	r3, r2
a0009198:	e5c30000 	strb	r0, [r3]
a000919c:	e2822001 	add	r2, r2, #1	; 0x1
a00091a0:	e58c2000 	str	r2, [ip]
a00091a4:	e51b3024 	ldr	r3, [fp, #-36]
a00091a8:	e2833001 	add	r3, r3, #1	; 0x1
a00091ac:	e50b3024 	str	r3, [fp, #-36]
a00091b0:	eaffffec 	b	a0009168 <.text+0x1168>
a00091b4:	e24b2038 	sub	r2, fp, #56	; 0x38
a00091b8:	e5923000 	ldr	r3, [r2]
a00091bc:	e1a01003 	mov	r1, r3
a00091c0:	e2433001 	sub	r3, r3, #1	; 0x1
a00091c4:	e5823000 	str	r3, [r2]
a00091c8:	e51b301c 	ldr	r3, [fp, #-28]
a00091cc:	e1510003 	cmp	r1, r3
a00091d0:	da00009e 	ble	a0009450 <.text+0x1450>
a00091d4:	e24b002c 	sub	r0, fp, #44	; 0x2c
a00091d8:	e5902000 	ldr	r2, [r0]
a00091dc:	e1a01002 	mov	r1, r2
a00091e0:	e3a03020 	mov	r3, #32	; 0x20
a00091e4:	e5c13000 	strb	r3, [r1]
a00091e8:	e2822001 	add	r2, r2, #1	; 0x1
a00091ec:	e5802000 	str	r2, [r0]
a00091f0:	eaffffef 	b	a00091b4 <.text+0x11b4>
a00091f4:	e51b3038 	ldr	r3, [fp, #-56]
a00091f8:	e3730001 	cmn	r3, #1	; 0x1
a00091fc:	1a000004 	bne	a0009214 <.text+0x1214>
a0009200:	e3a03008 	mov	r3, #8	; 0x8
a0009204:	e50b3038 	str	r3, [fp, #-56]
a0009208:	e51b3034 	ldr	r3, [fp, #-52]
a000920c:	e3833001 	orr	r3, r3, #1	; 0x1
a0009210:	e50b3034 	str	r3, [fp, #-52]
a0009214:	e51b3018 	ldr	r3, [fp, #-24]
a0009218:	e2833004 	add	r3, r3, #4	; 0x4
a000921c:	e50b3018 	str	r3, [fp, #-24]
a0009220:	e5133004 	ldr	r3, [r3, #-4]
a0009224:	e1a01003 	mov	r1, r3
a0009228:	e3a02000 	mov	r2, #0	; 0x0
a000922c:	e51b3038 	ldr	r3, [fp, #-56]
a0009230:	e58d3000 	str	r3, [sp]
a0009234:	e51b303c 	ldr	r3, [fp, #-60]
a0009238:	e58d3004 	str	r3, [sp, #4]
a000923c:	e51b3034 	ldr	r3, [fp, #-52]
a0009240:	e58d3008 	str	r3, [sp, #8]
a0009244:	e51b002c 	ldr	r0, [fp, #-44]
a0009248:	e3a03010 	mov	r3, #16	; 0x10
a000924c:	ebfffd4e 	bl	a000878c <number>
a0009250:	e1a03000 	mov	r3, r0
a0009254:	e50b302c 	str	r3, [fp, #-44]
a0009258:	ea00007c 	b	a0009450 <.text+0x1450>
a000925c:	e51b3040 	ldr	r3, [fp, #-64]
a0009260:	e353006c 	cmp	r3, #108	; 0x6c
a0009264:	1a00000a 	bne	a0009294 <.text+0x1294>
a0009268:	e51b3018 	ldr	r3, [fp, #-24]
a000926c:	e2833004 	add	r3, r3, #4	; 0x4
a0009270:	e50b3018 	str	r3, [fp, #-24]
a0009274:	e5133004 	ldr	r3, [r3, #-4]
a0009278:	e50b3044 	str	r3, [fp, #-68]
a000927c:	e51b1044 	ldr	r1, [fp, #-68]
a0009280:	e51b202c 	ldr	r2, [fp, #-44]
a0009284:	e51b3010 	ldr	r3, [fp, #-16]
a0009288:	e0633002 	rsb	r3, r3, r2
a000928c:	e5813000 	str	r3, [r1]
a0009290:	ea00006e 	b	a0009450 <.text+0x1450>
a0009294:	e51b3018 	ldr	r3, [fp, #-24]
a0009298:	e2833004 	add	r3, r3, #4	; 0x4
a000929c:	e50b3018 	str	r3, [fp, #-24]
a00092a0:	e5133004 	ldr	r3, [r3, #-4]
a00092a4:	e50b3044 	str	r3, [fp, #-68]
a00092a8:	e51b1044 	ldr	r1, [fp, #-68]
a00092ac:	e51b202c 	ldr	r2, [fp, #-44]
a00092b0:	e51b3010 	ldr	r3, [fp, #-16]
a00092b4:	e0633002 	rsb	r3, r3, r2
a00092b8:	e5813000 	str	r3, [r1]
a00092bc:	ea000063 	b	a0009450 <.text+0x1450>
a00092c0:	e3a03008 	mov	r3, #8	; 0x8
a00092c4:	e50b3028 	str	r3, [fp, #-40]
a00092c8:	ea000025 	b	a0009364 <.text+0x1364>
a00092cc:	e51b3034 	ldr	r3, [fp, #-52]
a00092d0:	e3833040 	orr	r3, r3, #64	; 0x40
a00092d4:	e50b3034 	str	r3, [fp, #-52]
a00092d8:	e3a03010 	mov	r3, #16	; 0x10
a00092dc:	e50b3028 	str	r3, [fp, #-40]
a00092e0:	ea00001f 	b	a0009364 <.text+0x1364>
a00092e4:	e51b3034 	ldr	r3, [fp, #-52]
a00092e8:	e3833002 	orr	r3, r3, #2	; 0x2
a00092ec:	e50b3034 	str	r3, [fp, #-52]
a00092f0:	ea00001b 	b	a0009364 <.text+0x1364>
a00092f4:	e51b3014 	ldr	r3, [fp, #-20]
a00092f8:	e5d33000 	ldrb	r3, [r3]
a00092fc:	e3530025 	cmp	r3, #37	; 0x25
a0009300:	0a000006 	beq	a0009320 <.text+0x1320>
a0009304:	e24b002c 	sub	r0, fp, #44	; 0x2c
a0009308:	e5902000 	ldr	r2, [r0]
a000930c:	e1a01002 	mov	r1, r2
a0009310:	e3a03025 	mov	r3, #37	; 0x25
a0009314:	e5c13000 	strb	r3, [r1]
a0009318:	e2822001 	add	r2, r2, #1	; 0x1
a000931c:	e5802000 	str	r2, [r0]
a0009320:	e51b3014 	ldr	r3, [fp, #-20]
a0009324:	e5d33000 	ldrb	r3, [r3]
a0009328:	e3530000 	cmp	r3, #0	; 0x0
a000932c:	0a000008 	beq	a0009354 <.text+0x1354>
a0009330:	e24b002c 	sub	r0, fp, #44	; 0x2c
a0009334:	e5902000 	ldr	r2, [r0]
a0009338:	e51b3014 	ldr	r3, [fp, #-20]
a000933c:	e1a01002 	mov	r1, r2
a0009340:	e5d33000 	ldrb	r3, [r3]
a0009344:	e5c13000 	strb	r3, [r1]
a0009348:	e2822001 	add	r2, r2, #1	; 0x1
a000934c:	e5802000 	str	r2, [r0]
a0009350:	ea00003e 	b	a0009450 <.text+0x1450>
a0009354:	e51b3014 	ldr	r3, [fp, #-20]
a0009358:	e2433001 	sub	r3, r3, #1	; 0x1
a000935c:	e50b3014 	str	r3, [fp, #-20]
a0009360:	ea00003a 	b	a0009450 <.text+0x1450>
a0009364:	e51b3040 	ldr	r3, [fp, #-64]
a0009368:	e353006c 	cmp	r3, #108	; 0x6c
a000936c:	1a000005 	bne	a0009388 <.text+0x1388>
a0009370:	e51b3018 	ldr	r3, [fp, #-24]
a0009374:	e2833004 	add	r3, r3, #4	; 0x4
a0009378:	e50b3018 	str	r3, [fp, #-24]
a000937c:	e5133004 	ldr	r3, [r3, #-4]
a0009380:	e50b3020 	str	r3, [fp, #-32]
a0009384:	ea000023 	b	a0009418 <.text+0x1418>
a0009388:	e51b3040 	ldr	r3, [fp, #-64]
a000938c:	e3530068 	cmp	r3, #104	; 0x68
a0009390:	1a000010 	bne	a00093d8 <.text+0x13d8>
a0009394:	e51b3034 	ldr	r3, [fp, #-52]
a0009398:	e1a030a3 	mov	r3, r3, lsr #1
a000939c:	e2033001 	and	r3, r3, #1	; 0x1
a00093a0:	e3530000 	cmp	r3, #0	; 0x0
a00093a4:	0a000005 	beq	a00093c0 <.text+0x13c0>
a00093a8:	e51b3018 	ldr	r3, [fp, #-24]
a00093ac:	e2833002 	add	r3, r3, #2	; 0x2
a00093b0:	e50b3018 	str	r3, [fp, #-24]
a00093b4:	e15330f2 	ldrsh	r3, [r3, #-2]
a00093b8:	e50b3020 	str	r3, [fp, #-32]
a00093bc:	ea000015 	b	a0009418 <.text+0x1418>
a00093c0:	e51b3018 	ldr	r3, [fp, #-24]
a00093c4:	e2833002 	add	r3, r3, #2	; 0x2
a00093c8:	e50b3018 	str	r3, [fp, #-24]
a00093cc:	e15330b2 	ldrh	r3, [r3, #-2]
a00093d0:	e50b3020 	str	r3, [fp, #-32]
a00093d4:	ea00000f 	b	a0009418 <.text+0x1418>
a00093d8:	e51b3034 	ldr	r3, [fp, #-52]
a00093dc:	e1a030a3 	mov	r3, r3, lsr #1
a00093e0:	e2033001 	and	r3, r3, #1	; 0x1
a00093e4:	e3530000 	cmp	r3, #0	; 0x0
a00093e8:	0a000005 	beq	a0009404 <.text+0x1404>
a00093ec:	e51b3018 	ldr	r3, [fp, #-24]
a00093f0:	e2833004 	add	r3, r3, #4	; 0x4
a00093f4:	e50b3018 	str	r3, [fp, #-24]
a00093f8:	e5133004 	ldr	r3, [r3, #-4]
a00093fc:	e50b3020 	str	r3, [fp, #-32]
a0009400:	ea000004 	b	a0009418 <.text+0x1418>
a0009404:	e51b3018 	ldr	r3, [fp, #-24]
a0009408:	e2833004 	add	r3, r3, #4	; 0x4
a000940c:	e50b3018 	str	r3, [fp, #-24]
a0009410:	e5133004 	ldr	r3, [r3, #-4]
a0009414:	e50b3020 	str	r3, [fp, #-32]
a0009418:	e51b3020 	ldr	r3, [fp, #-32]
a000941c:	e1a01003 	mov	r1, r3
a0009420:	e3a02000 	mov	r2, #0	; 0x0
a0009424:	e51b3038 	ldr	r3, [fp, #-56]
a0009428:	e58d3000 	str	r3, [sp]
a000942c:	e51b303c 	ldr	r3, [fp, #-60]
a0009430:	e58d3004 	str	r3, [sp, #4]
a0009434:	e51b3034 	ldr	r3, [fp, #-52]
a0009438:	e58d3008 	str	r3, [sp, #8]
a000943c:	e51b002c 	ldr	r0, [fp, #-44]
a0009440:	e51b3028 	ldr	r3, [fp, #-40]
a0009444:	ebfffcd0 	bl	a000878c <number>
a0009448:	e1a03000 	mov	r3, r0
a000944c:	e50b302c 	str	r3, [fp, #-44]
a0009450:	e51b3014 	ldr	r3, [fp, #-20]
a0009454:	e2833001 	add	r3, r3, #1	; 0x1
a0009458:	e50b3014 	str	r3, [fp, #-20]
a000945c:	eafffe26 	b	a0008cfc <vsprintf+0x24>
a0009460:	e51b202c 	ldr	r2, [fp, #-44]
a0009464:	e3a03000 	mov	r3, #0	; 0x0
a0009468:	e5c23000 	strb	r3, [r2]
a000946c:	e51b202c 	ldr	r2, [fp, #-44]
a0009470:	e51b3010 	ldr	r3, [fp, #-16]
a0009474:	e0633002 	rsb	r3, r3, r2
a0009478:	e1a00003 	mov	r0, r3
a000947c:	e24bd00c 	sub	sp, fp, #12	; 0xc
a0009480:	e89da800 	ldmia	sp, {fp, sp, pc}
a0009484:	a000bf58 	andge	fp, r0, r8, asr pc
a0009488:	a000be10 	andge	fp, r0, r0, lsl lr

a000948c <sprintf>:
a000948c:	e1a0c00d 	mov	ip, sp
a0009490:	e92d000e 	stmdb	sp!, {r1, r2, r3}
a0009494:	e92dd800 	stmdb	sp!, {fp, ip, lr, pc}
a0009498:	e24cb010 	sub	fp, ip, #16	; 0x10
a000949c:	e24dd00c 	sub	sp, sp, #12	; 0xc
a00094a0:	e50b0010 	str	r0, [fp, #-16]
a00094a4:	e28b3008 	add	r3, fp, #8	; 0x8
a00094a8:	e50b3014 	str	r3, [fp, #-20]
a00094ac:	e51b0010 	ldr	r0, [fp, #-16]
a00094b0:	e59b1004 	ldr	r1, [fp, #4]
a00094b4:	e51b2014 	ldr	r2, [fp, #-20]
a00094b8:	ebfffe06 	bl	a0008cd8 <vsprintf>
a00094bc:	e1a03000 	mov	r3, r0
a00094c0:	e50b3018 	str	r3, [fp, #-24]
a00094c4:	e51b3018 	ldr	r3, [fp, #-24]
a00094c8:	e1a00003 	mov	r0, r3
a00094cc:	e24bd00c 	sub	sp, fp, #12	; 0xc
a00094d0:	e89da800 	ldmia	sp, {fp, sp, pc}

a00094d4 <putc>:
a00094d4:	e1a0c00d 	mov	ip, sp
a00094d8:	e92dd800 	stmdb	sp!, {fp, ip, lr, pc}
a00094dc:	e24cb004 	sub	fp, ip, #4	; 0x4
a00094e0:	e24dd004 	sub	sp, sp, #4	; 0x4
a00094e4:	e1a03000 	mov	r3, r0
a00094e8:	e54b300d 	strb	r3, [fp, #-13]
a00094ec:	e55b300d 	ldrb	r3, [fp, #-13]
a00094f0:	e1a00003 	mov	r0, r3
a00094f4:	eb000667 	bl	a000ae98 <SerialOutChar_CheckCR>
a00094f8:	e3a03001 	mov	r3, #1	; 0x1
a00094fc:	e1a00003 	mov	r0, r3
a0009500:	e99da800 	ldmib	sp, {fp, sp, pc}

a0009504 <putx>:
a0009504:	e1a0c00d 	mov	ip, sp
a0009508:	e92dd800 	stmdb	sp!, {fp, ip, lr, pc}
a000950c:	e24cb004 	sub	fp, ip, #4	; 0x4
a0009510:	e24dd004 	sub	sp, sp, #4	; 0x4
a0009514:	e1a03000 	mov	r3, r0
a0009518:	e54b300d 	strb	r3, [fp, #-13]
a000951c:	e55b300d 	ldrb	r3, [fp, #-13]
a0009520:	e1a00003 	mov	r0, r3
a0009524:	eb000644 	bl	a000ae3c <SerialOutChar>
a0009528:	e3a03001 	mov	r3, #1	; 0x1
a000952c:	e1a00003 	mov	r0, r3
a0009530:	e99da800 	ldmib	sp, {fp, sp, pc}

a0009534 <printf>:
a0009534:	e1a0c00d 	mov	ip, sp
a0009538:	e92d000f 	stmdb	sp!, {r0, r1, r2, r3}
a000953c:	e92dd800 	stmdb	sp!, {fp, ip, lr, pc}
a0009540:	e24cb014 	sub	fp, ip, #20	; 0x14
a0009544:	e24ddb01 	sub	sp, sp, #1024	; 0x400
a0009548:	e24dd008 	sub	sp, sp, #8	; 0x8
a000954c:	e28b3008 	add	r3, fp, #8	; 0x8
a0009550:	e50b3410 	str	r3, [fp, #-1040]
a0009554:	e24b3b01 	sub	r3, fp, #1024	; 0x400
a0009558:	e243300c 	sub	r3, r3, #12	; 0xc
a000955c:	e1a00003 	mov	r0, r3
a0009560:	e59b1004 	ldr	r1, [fp, #4]
a0009564:	e51b2410 	ldr	r2, [fp, #-1040]
a0009568:	ebfffdda 	bl	a0008cd8 <vsprintf>
a000956c:	e1a03000 	mov	r3, r0
a0009570:	e50b3414 	str	r3, [fp, #-1044]
a0009574:	e24b3b01 	sub	r3, fp, #1024	; 0x400
a0009578:	e243300c 	sub	r3, r3, #12	; 0xc
a000957c:	e1a00003 	mov	r0, r3
a0009580:	e51b1414 	ldr	r1, [fp, #-1044]
a0009584:	eb00066c 	bl	a000af3c <SerialOutStr_CheckCR>
a0009588:	e51b3414 	ldr	r3, [fp, #-1044]
a000958c:	e1a00003 	mov	r0, r3
a0009590:	e24bd00c 	sub	sp, fp, #12	; 0xc
a0009594:	e89da800 	ldmia	sp, {fp, sp, pc}

a0009598 <getc>:
a0009598:	e1a0c00d 	mov	ip, sp
a000959c:	e92dd800 	stmdb	sp!, {fp, ip, lr, pc}
a00095a0:	e24cb004 	sub	fp, ip, #4	; 0x4
a00095a4:	e24dd004 	sub	sp, sp, #4	; 0x4
a00095a8:	e3a03000 	mov	r3, #0	; 0x0
a00095ac:	e50b3010 	str	r3, [fp, #-16]
a00095b0:	eb00067b 	bl	a000afa4 <SerialIsReadyChar>
a00095b4:	e1a03000 	mov	r3, r0
a00095b8:	e3530000 	cmp	r3, #0	; 0x0
a00095bc:	1a000003 	bne	a00095d0 <getc+0x38>
a00095c0:	e51b3010 	ldr	r3, [fp, #-16]
a00095c4:	e2833001 	add	r3, r3, #1	; 0x1
a00095c8:	e50b3010 	str	r3, [fp, #-16]
a00095cc:	eafffff7 	b	a00095b0 <getc+0x18>
a00095d0:	eb000692 	bl	a000b020 <SerialIsGetChar>
a00095d4:	e1a03000 	mov	r3, r0
a00095d8:	e20330ff 	and	r3, r3, #255	; 0xff
a00095dc:	e1a00003 	mov	r0, r3
a00095e0:	e99da800 	ldmib	sp, {fp, sp, pc}

a00095e4 <gets>:
a00095e4:	e1a0c00d 	mov	ip, sp
a00095e8:	e92dd800 	stmdb	sp!, {fp, ip, lr, pc}
a00095ec:	e24cb004 	sub	fp, ip, #4	; 0x4
a00095f0:	e24dd00c 	sub	sp, sp, #12	; 0xc
a00095f4:	e50b0010 	str	r0, [fp, #-16]
a00095f8:	e3a03000 	mov	r3, #0	; 0x0
a00095fc:	e50b3014 	str	r3, [fp, #-20]
a0009600:	ebffffe4 	bl	a0009598 <getc>
a0009604:	e1a03000 	mov	r3, r0
a0009608:	e54b3015 	strb	r3, [fp, #-21]
a000960c:	e55b3015 	ldrb	r3, [fp, #-21]
a0009610:	e20330ff 	and	r3, r3, #255	; 0xff
a0009614:	e353000d 	cmp	r3, #13	; 0xd
a0009618:	0a000021 	beq	a00096a4 <gets+0xc0>
a000961c:	e55b3015 	ldrb	r3, [fp, #-21]
a0009620:	e3530008 	cmp	r3, #8	; 0x8
a0009624:	0a00000e 	beq	a0009664 <gets+0x80>
a0009628:	e51b3014 	ldr	r3, [fp, #-20]
a000962c:	e2833001 	add	r3, r3, #1	; 0x1
a0009630:	e50b3014 	str	r3, [fp, #-20]
a0009634:	e24b0010 	sub	r0, fp, #16	; 0x10
a0009638:	e5903000 	ldr	r3, [r0]
a000963c:	e1a01003 	mov	r1, r3
a0009640:	e55b2015 	ldrb	r2, [fp, #-21]
a0009644:	e5c12000 	strb	r2, [r1]
a0009648:	e2833001 	add	r3, r3, #1	; 0x1
a000964c:	e5803000 	str	r3, [r0]
a0009650:	e55b3015 	ldrb	r3, [fp, #-21]
a0009654:	e59f0064 	ldr	r0, [pc, #100]	; a00096c0 <.text+0x16c0>
a0009658:	e1a01003 	mov	r1, r3
a000965c:	ebffffb4 	bl	a0009534 <printf>
a0009660:	eaffffe6 	b	a0009600 <gets+0x1c>
a0009664:	e51b3014 	ldr	r3, [fp, #-20]
a0009668:	e3530000 	cmp	r3, #0	; 0x0
a000966c:	daffffe3 	ble	a0009600 <gets+0x1c>
a0009670:	e51b3014 	ldr	r3, [fp, #-20]
a0009674:	e2433001 	sub	r3, r3, #1	; 0x1
a0009678:	e50b3014 	str	r3, [fp, #-20]
a000967c:	e24b0010 	sub	r0, fp, #16	; 0x10
a0009680:	e5902000 	ldr	r2, [r0]
a0009684:	e1a01002 	mov	r1, r2
a0009688:	e3a03020 	mov	r3, #32	; 0x20
a000968c:	e5c13000 	strb	r3, [r1]
a0009690:	e2422001 	sub	r2, r2, #1	; 0x1
a0009694:	e5802000 	str	r2, [r0]
a0009698:	e59f0024 	ldr	r0, [pc, #36]	; a00096c4 <.text+0x16c4>
a000969c:	ebffffa4 	bl	a0009534 <printf>
a00096a0:	eaffffd6 	b	a0009600 <gets+0x1c>
a00096a4:	e51b2010 	ldr	r2, [fp, #-16]
a00096a8:	e3a03000 	mov	r3, #0	; 0x0
a00096ac:	e5c23000 	strb	r3, [r2]
a00096b0:	e51b3014 	ldr	r3, [fp, #-20]
a00096b4:	e1a00003 	mov	r0, r3
a00096b8:	e24bd00c 	sub	sp, fp, #12	; 0xc
a00096bc:	e89da800 	ldmia	sp, {fp, sp, pc}
a00096c0:	a000be18 	andge	fp, r0, r8, lsl lr
a00096c4:	a000be20 	andge	fp, r0, r0, lsr #28

a00096c8 <his_append>:
a00096c8:	e1a0c00d 	mov	ip, sp
a00096cc:	e92dd800 	stmdb	sp!, {fp, ip, lr, pc}
a00096d0:	e24cb004 	sub	fp, ip, #4	; 0x4
a00096d4:	e24dd00c 	sub	sp, sp, #12	; 0xc
a00096d8:	e50b0010 	str	r0, [fp, #-16]
a00096dc:	e3a03000 	mov	r3, #0	; 0x0
a00096e0:	e50b3014 	str	r3, [fp, #-20]
a00096e4:	e51b3014 	ldr	r3, [fp, #-20]
a00096e8:	e3530007 	cmp	r3, #7	; 0x7
a00096ec:	ca00001d 	bgt	a0009768 <his_append+0xa0>
a00096f0:	e51b3014 	ldr	r3, [fp, #-20]
a00096f4:	e1a02283 	mov	r2, r3, lsl #5
a00096f8:	e59f316c 	ldr	r3, [pc, #364]	; a000986c <.text+0x186c>
a00096fc:	e0823003 	add	r3, r2, r3
a0009700:	e51b0010 	ldr	r0, [fp, #-16]
a0009704:	e1a01003 	mov	r1, r3
a0009708:	eb00025c 	bl	a000a080 <strcmp>
a000970c:	e1a03000 	mov	r3, r0
a0009710:	e3530000 	cmp	r3, #0	; 0x0
a0009714:	1a00000f 	bne	a0009758 <his_append+0x90>
a0009718:	e59f2150 	ldr	r2, [pc, #336]	; a0009870 <.text+0x1870>
a000971c:	e3a03000 	mov	r3, #0	; 0x0
a0009720:	e5823000 	str	r3, [r2]
a0009724:	e59f3148 	ldr	r3, [pc, #328]	; a0009874 <.text+0x1874>
a0009728:	e5933000 	ldr	r3, [r3]
a000972c:	e3530000 	cmp	r3, #0	; 0x0
a0009730:	0a000004 	beq	a0009748 <his_append+0x80>
a0009734:	e59f2134 	ldr	r2, [pc, #308]	; a0009870 <.text+0x1870>
a0009738:	e59f3134 	ldr	r3, [pc, #308]	; a0009874 <.text+0x1874>
a000973c:	e5933000 	ldr	r3, [r3]
a0009740:	e2433001 	sub	r3, r3, #1	; 0x1
a0009744:	e5823000 	str	r3, [r2]
a0009748:	e59f3124 	ldr	r3, [pc, #292]	; a0009874 <.text+0x1874>
a000974c:	e5933000 	ldr	r3, [r3]
a0009750:	e50b3018 	str	r3, [fp, #-24]
a0009754:	ea000041 	b	a0009860 <his_append+0x198>
a0009758:	e51b3014 	ldr	r3, [fp, #-20]
a000975c:	e2833001 	add	r3, r3, #1	; 0x1
a0009760:	e50b3014 	str	r3, [fp, #-20]
a0009764:	eaffffde 	b	a00096e4 <his_append+0x1c>
a0009768:	e59f3104 	ldr	r3, [pc, #260]	; a0009874 <.text+0x1874>
a000976c:	e5933000 	ldr	r3, [r3]
a0009770:	e3530007 	cmp	r3, #7	; 0x7
a0009774:	ca00000d 	bgt	a00097b0 <his_append+0xe8>
a0009778:	e59f30f4 	ldr	r3, [pc, #244]	; a0009874 <.text+0x1874>
a000977c:	e5933000 	ldr	r3, [r3]
a0009780:	e1a02283 	mov	r2, r3, lsl #5
a0009784:	e59f30e0 	ldr	r3, [pc, #224]	; a000986c <.text+0x186c>
a0009788:	e0823003 	add	r3, r2, r3
a000978c:	e1a00003 	mov	r0, r3
a0009790:	e51b1010 	ldr	r1, [fp, #-16]
a0009794:	eb0001ac 	bl	a0009e4c <strcpy>
a0009798:	e59f20d4 	ldr	r2, [pc, #212]	; a0009874 <.text+0x1874>
a000979c:	e59f30d0 	ldr	r3, [pc, #208]	; a0009874 <.text+0x1874>
a00097a0:	e5933000 	ldr	r3, [r3]
a00097a4:	e2833001 	add	r3, r3, #1	; 0x1
a00097a8:	e5823000 	str	r3, [r2]
a00097ac:	ea00001c 	b	a0009824 <his_append+0x15c>
a00097b0:	e3a03001 	mov	r3, #1	; 0x1
a00097b4:	e50b3014 	str	r3, [fp, #-20]
a00097b8:	e51b3014 	ldr	r3, [fp, #-20]
a00097bc:	e3530007 	cmp	r3, #7	; 0x7
a00097c0:	ca00000f 	bgt	a0009804 <his_append+0x13c>
a00097c4:	e51b3014 	ldr	r3, [fp, #-20]
a00097c8:	e1a02283 	mov	r2, r3, lsl #5
a00097cc:	e59f3098 	ldr	r3, [pc, #152]	; a000986c <.text+0x186c>
a00097d0:	e2433020 	sub	r3, r3, #32	; 0x20
a00097d4:	e0821003 	add	r1, r2, r3
a00097d8:	e51b3014 	ldr	r3, [fp, #-20]
a00097dc:	e1a02283 	mov	r2, r3, lsl #5
a00097e0:	e59f3084 	ldr	r3, [pc, #132]	; a000986c <.text+0x186c>
a00097e4:	e0823003 	add	r3, r2, r3
a00097e8:	e1a00001 	mov	r0, r1
a00097ec:	e1a01003 	mov	r1, r3
a00097f0:	eb000195 	bl	a0009e4c <strcpy>
a00097f4:	e51b3014 	ldr	r3, [fp, #-20]
a00097f8:	e2833001 	add	r3, r3, #1	; 0x1
a00097fc:	e50b3014 	str	r3, [fp, #-20]
a0009800:	eaffffec 	b	a00097b8 <his_append+0xf0>
a0009804:	e59f006c 	ldr	r0, [pc, #108]	; a0009878 <.text+0x1878>
a0009808:	e51b1010 	ldr	r1, [fp, #-16]
a000980c:	eb00018e 	bl	a0009e4c <strcpy>
a0009810:	e59f2058 	ldr	r2, [pc, #88]	; a0009870 <.text+0x1870>
a0009814:	e59f3058 	ldr	r3, [pc, #88]	; a0009874 <.text+0x1874>
a0009818:	e5933000 	ldr	r3, [r3]
a000981c:	e2433001 	sub	r3, r3, #1	; 0x1
a0009820:	e5823000 	str	r3, [r2]
a0009824:	e59f2044 	ldr	r2, [pc, #68]	; a0009870 <.text+0x1870>
a0009828:	e3a03000 	mov	r3, #0	; 0x0
a000982c:	e5823000 	str	r3, [r2]
a0009830:	e59f303c 	ldr	r3, [pc, #60]	; a0009874 <.text+0x1874>
a0009834:	e5933000 	ldr	r3, [r3]
a0009838:	e3530000 	cmp	r3, #0	; 0x0
a000983c:	0a000004 	beq	a0009854 <his_append+0x18c>
a0009840:	e59f2028 	ldr	r2, [pc, #40]	; a0009870 <.text+0x1870>
a0009844:	e59f3028 	ldr	r3, [pc, #40]	; a0009874 <.text+0x1874>
a0009848:	e5933000 	ldr	r3, [r3]
a000984c:	e2433001 	sub	r3, r3, #1	; 0x1
a0009850:	e5823000 	str	r3, [r2]
a0009854:	e59f3018 	ldr	r3, [pc, #24]	; a0009874 <.text+0x1874>
a0009858:	e5933000 	ldr	r3, [r3]
a000985c:	e50b3018 	str	r3, [fp, #-24]
a0009860:	e51b0018 	ldr	r0, [fp, #-24]
a0009864:	e24bd00c 	sub	sp, fp, #12	; 0xc
a0009868:	e89da800 	ldmia	sp, {fp, sp, pc}
a000986c:	a000c060 	andge	ip, r0, r0, rrx
a0009870:	a000c164 	andge	ip, r0, r4, ror #2
a0009874:	a000c160 	andge	ip, r0, r0, ror #2
a0009878:	a000c140 	andge	ip, r0, r0, asr #2

a000987c <his_set>:
a000987c:	e1a0c00d 	mov	ip, sp
a0009880:	e92dd800 	stmdb	sp!, {fp, ip, lr, pc}
a0009884:	e24cb004 	sub	fp, ip, #4	; 0x4
a0009888:	e24dd010 	sub	sp, sp, #16	; 0x10
a000988c:	e50b0010 	str	r0, [fp, #-16]
a0009890:	e50b1014 	str	r1, [fp, #-20]
a0009894:	e51b0010 	ldr	r0, [fp, #-16]
a0009898:	eb000265 	bl	a000a234 <strlen>
a000989c:	e50b001c 	str	r0, [fp, #-28]
a00098a0:	e3a03000 	mov	r3, #0	; 0x0
a00098a4:	e50b3018 	str	r3, [fp, #-24]
a00098a8:	e51b2018 	ldr	r2, [fp, #-24]
a00098ac:	e51b301c 	ldr	r3, [fp, #-28]
a00098b0:	e1520003 	cmp	r2, r3
a00098b4:	aa000005 	bge	a00098d0 <his_set+0x54>
a00098b8:	e59f0048 	ldr	r0, [pc, #72]	; a0009908 <.text+0x1908>
a00098bc:	ebffff1c 	bl	a0009534 <printf>
a00098c0:	e51b3018 	ldr	r3, [fp, #-24]
a00098c4:	e2833001 	add	r3, r3, #1	; 0x1
a00098c8:	e50b3018 	str	r3, [fp, #-24]
a00098cc:	eafffff5 	b	a00098a8 <his_set+0x2c>
a00098d0:	e51b3014 	ldr	r3, [fp, #-20]
a00098d4:	e1a02283 	mov	r2, r3, lsl #5
a00098d8:	e59f302c 	ldr	r3, [pc, #44]	; a000990c <.text+0x190c>
a00098dc:	e0823003 	add	r3, r2, r3
a00098e0:	e51b0010 	ldr	r0, [fp, #-16]
a00098e4:	e1a01003 	mov	r1, r3
a00098e8:	eb000157 	bl	a0009e4c <strcpy>
a00098ec:	e59f001c 	ldr	r0, [pc, #28]	; a0009910 <.text+0x1910>
a00098f0:	e51b1010 	ldr	r1, [fp, #-16]
a00098f4:	ebffff0e 	bl	a0009534 <printf>
a00098f8:	e51b3014 	ldr	r3, [fp, #-20]
a00098fc:	e1a00003 	mov	r0, r3
a0009900:	e24bd00c 	sub	sp, fp, #12	; 0xc
a0009904:	e89da800 	ldmia	sp, {fp, sp, pc}
a0009908:	a000be20 	andge	fp, r0, r0, lsr #28
a000990c:	a000c060 	andge	ip, r0, r0, rrx
a0009910:	a000be28 	andge	fp, r0, r8, lsr #28

a0009914 <gets_his>:
a0009914:	e1a0c00d 	mov	ip, sp
a0009918:	e92dd800 	stmdb	sp!, {fp, ip, lr, pc}
a000991c:	e24cb004 	sub	fp, ip, #4	; 0x4
a0009920:	e24dd014 	sub	sp, sp, #20	; 0x14
a0009924:	e50b0010 	str	r0, [fp, #-16]
a0009928:	e3a03000 	mov	r3, #0	; 0x0
a000992c:	e50b3014 	str	r3, [fp, #-20]
a0009930:	e51b3010 	ldr	r3, [fp, #-16]
a0009934:	e50b3018 	str	r3, [fp, #-24]
a0009938:	ebffff16 	bl	a0009598 <getc>
a000993c:	e1a03000 	mov	r3, r0
a0009940:	e54b3019 	strb	r3, [fp, #-25]
a0009944:	e55b3019 	ldrb	r3, [fp, #-25]
a0009948:	e353000d 	cmp	r3, #13	; 0xd
a000994c:	1a00000a 	bne	a000997c <gets_his+0x68>
a0009950:	e51b2010 	ldr	r2, [fp, #-16]
a0009954:	e3a03000 	mov	r3, #0	; 0x0
a0009958:	e5c23000 	strb	r3, [r2]
a000995c:	e51b0018 	ldr	r0, [fp, #-24]
a0009960:	eb000233 	bl	a000a234 <strlen>
a0009964:	e1a03000 	mov	r3, r0
a0009968:	e3530000 	cmp	r3, #0	; 0x0
a000996c:	0a00006c 	beq	a0009b24 <gets_his+0x210>
a0009970:	e51b0018 	ldr	r0, [fp, #-24]
a0009974:	ebffff53 	bl	a00096c8 <his_append>
a0009978:	ea000069 	b	a0009b24 <gets_his+0x210>
a000997c:	e55b3019 	ldrb	r3, [fp, #-25]
a0009980:	e50b3020 	str	r3, [fp, #-32]
a0009984:	e51b3020 	ldr	r3, [fp, #-32]
a0009988:	e3530018 	cmp	r3, #24	; 0x18
a000998c:	0a00002e 	beq	a0009a4c <gets_his+0x138>
a0009990:	e51b3020 	ldr	r3, [fp, #-32]
a0009994:	e3530018 	cmp	r3, #24	; 0x18
a0009998:	ca000003 	bgt	a00099ac <gets_his+0x98>
a000999c:	e51b3020 	ldr	r3, [fp, #-32]
a00099a0:	e3530008 	cmp	r3, #8	; 0x8
a00099a4:	0a00003f 	beq	a0009aa8 <gets_his+0x194>
a00099a8:	ea00004e 	b	a0009ae8 <gets_his+0x1d4>
a00099ac:	e51b3020 	ldr	r3, [fp, #-32]
a00099b0:	e353001a 	cmp	r3, #26	; 0x1a
a00099b4:	0a000000 	beq	a00099bc <gets_his+0xa8>
a00099b8:	ea00004a 	b	a0009ae8 <gets_his+0x1d4>
a00099bc:	e59f3170 	ldr	r3, [pc, #368]	; a0009b34 <.text+0x1b34>
a00099c0:	e5933000 	ldr	r3, [r3]
a00099c4:	e3530000 	cmp	r3, #0	; 0x0
a00099c8:	baffffda 	blt	a0009938 <gets_his+0x24>
a00099cc:	e59f3160 	ldr	r3, [pc, #352]	; a0009b34 <.text+0x1b34>
a00099d0:	e51b0018 	ldr	r0, [fp, #-24]
a00099d4:	e5931000 	ldr	r1, [r3]
a00099d8:	ebffffa7 	bl	a000987c <his_set>
a00099dc:	e59f3150 	ldr	r3, [pc, #336]	; a0009b34 <.text+0x1b34>
a00099e0:	e5933000 	ldr	r3, [r3]
a00099e4:	e3530000 	cmp	r3, #0	; 0x0
a00099e8:	0a000004 	beq	a0009a00 <gets_his+0xec>
a00099ec:	e59f2140 	ldr	r2, [pc, #320]	; a0009b34 <.text+0x1b34>
a00099f0:	e59f313c 	ldr	r3, [pc, #316]	; a0009b34 <.text+0x1b34>
a00099f4:	e5933000 	ldr	r3, [r3]
a00099f8:	e2433001 	sub	r3, r3, #1	; 0x1
a00099fc:	e5823000 	str	r3, [r2]
a0009a00:	e59f312c 	ldr	r3, [pc, #300]	; a0009b34 <.text+0x1b34>
a0009a04:	e59f212c 	ldr	r2, [pc, #300]	; a0009b38 <.text+0x1b38>
a0009a08:	e5931000 	ldr	r1, [r3]
a0009a0c:	e5923000 	ldr	r3, [r2]
a0009a10:	e1510003 	cmp	r1, r3
a0009a14:	ba000004 	blt	a0009a2c <gets_his+0x118>
a0009a18:	e59f2114 	ldr	r2, [pc, #276]	; a0009b34 <.text+0x1b34>
a0009a1c:	e59f3114 	ldr	r3, [pc, #276]	; a0009b38 <.text+0x1b38>
a0009a20:	e5933000 	ldr	r3, [r3]
a0009a24:	e2433001 	sub	r3, r3, #1	; 0x1
a0009a28:	e5823000 	str	r3, [r2]
a0009a2c:	e51b0018 	ldr	r0, [fp, #-24]
a0009a30:	eb0001ff 	bl	a000a234 <strlen>
a0009a34:	e50b0014 	str	r0, [fp, #-20]
a0009a38:	e51b3018 	ldr	r3, [fp, #-24]
a0009a3c:	e51b2014 	ldr	r2, [fp, #-20]
a0009a40:	e0833002 	add	r3, r3, r2
a0009a44:	e50b3010 	str	r3, [fp, #-16]
a0009a48:	eaffffba 	b	a0009938 <gets_his+0x24>
a0009a4c:	e59f30e0 	ldr	r3, [pc, #224]	; a0009b34 <.text+0x1b34>
a0009a50:	e59f20e0 	ldr	r2, [pc, #224]	; a0009b38 <.text+0x1b38>
a0009a54:	e5931000 	ldr	r1, [r3]
a0009a58:	e5923000 	ldr	r3, [r2]
a0009a5c:	e1510003 	cmp	r1, r3
a0009a60:	aaffffb4 	bge	a0009938 <gets_his+0x24>
a0009a64:	e59f30c8 	ldr	r3, [pc, #200]	; a0009b34 <.text+0x1b34>
a0009a68:	e51b0018 	ldr	r0, [fp, #-24]
a0009a6c:	e5931000 	ldr	r1, [r3]
a0009a70:	ebffff81 	bl	a000987c <his_set>
a0009a74:	e59f20b8 	ldr	r2, [pc, #184]	; a0009b34 <.text+0x1b34>
a0009a78:	e59f30b4 	ldr	r3, [pc, #180]	; a0009b34 <.text+0x1b34>
a0009a7c:	e5933000 	ldr	r3, [r3]
a0009a80:	e2833001 	add	r3, r3, #1	; 0x1
a0009a84:	e5823000 	str	r3, [r2]
a0009a88:	e51b0018 	ldr	r0, [fp, #-24]
a0009a8c:	eb0001e8 	bl	a000a234 <strlen>
a0009a90:	e50b0014 	str	r0, [fp, #-20]
a0009a94:	e51b2018 	ldr	r2, [fp, #-24]
a0009a98:	e51b3014 	ldr	r3, [fp, #-20]
a0009a9c:	e0823003 	add	r3, r2, r3
a0009aa0:	e50b3010 	str	r3, [fp, #-16]
a0009aa4:	eaffffa3 	b	a0009938 <gets_his+0x24>
a0009aa8:	e51b3014 	ldr	r3, [fp, #-20]
a0009aac:	e3530000 	cmp	r3, #0	; 0x0
a0009ab0:	daffffa0 	ble	a0009938 <gets_his+0x24>
a0009ab4:	e51b3014 	ldr	r3, [fp, #-20]
a0009ab8:	e2433001 	sub	r3, r3, #1	; 0x1
a0009abc:	e50b3014 	str	r3, [fp, #-20]
a0009ac0:	e24b0010 	sub	r0, fp, #16	; 0x10
a0009ac4:	e5902000 	ldr	r2, [r0]
a0009ac8:	e1a01002 	mov	r1, r2
a0009acc:	e3a03020 	mov	r3, #32	; 0x20
a0009ad0:	e5c13000 	strb	r3, [r1]
a0009ad4:	e2422001 	sub	r2, r2, #1	; 0x1
a0009ad8:	e5802000 	str	r2, [r0]
a0009adc:	e59f0058 	ldr	r0, [pc, #88]	; a0009b3c <.text+0x1b3c>
a0009ae0:	ebfffe93 	bl	a0009534 <printf>
a0009ae4:	eaffff93 	b	a0009938 <gets_his+0x24>
a0009ae8:	e51b3014 	ldr	r3, [fp, #-20]
a0009aec:	e2833001 	add	r3, r3, #1	; 0x1
a0009af0:	e50b3014 	str	r3, [fp, #-20]
a0009af4:	e24b0010 	sub	r0, fp, #16	; 0x10
a0009af8:	e5903000 	ldr	r3, [r0]
a0009afc:	e1a01003 	mov	r1, r3
a0009b00:	e55b2019 	ldrb	r2, [fp, #-25]
a0009b04:	e5c12000 	strb	r2, [r1]
a0009b08:	e2833001 	add	r3, r3, #1	; 0x1
a0009b0c:	e5803000 	str	r3, [r0]
a0009b10:	e55b3019 	ldrb	r3, [fp, #-25]
a0009b14:	e59f0024 	ldr	r0, [pc, #36]	; a0009b40 <.text+0x1b40>
a0009b18:	e1a01003 	mov	r1, r3
a0009b1c:	ebfffe84 	bl	a0009534 <printf>
a0009b20:	eaffff84 	b	a0009938 <gets_his+0x24>
a0009b24:	e51b3014 	ldr	r3, [fp, #-20]
a0009b28:	e1a00003 	mov	r0, r3
a0009b2c:	e24bd00c 	sub	sp, fp, #12	; 0xc
a0009b30:	e89da800 	ldmia	sp, {fp, sp, pc}
a0009b34:	a000c164 	andge	ip, r0, r4, ror #2
a0009b38:	a000c160 	andge	ip, r0, r0, ror #2
a0009b3c:	a000be20 	andge	fp, r0, r0, lsr #28
a0009b40:	a000be18 	andge	fp, r0, r8, lsl lr

a0009b44 <getc_timed>:
a0009b44:	e1a0c00d 	mov	ip, sp
a0009b48:	e92dd800 	stmdb	sp!, {fp, ip, lr, pc}
a0009b4c:	e24cb004 	sub	fp, ip, #4	; 0x4
a0009b50:	e24dd01c 	sub	sp, sp, #28	; 0x1c
a0009b54:	e1a03000 	mov	r3, r0
a0009b58:	e50b1014 	str	r1, [fp, #-20]
a0009b5c:	e54b300d 	strb	r3, [fp, #-13]
a0009b60:	e3a03000 	mov	r3, #0	; 0x0
a0009b64:	e50b3020 	str	r3, [fp, #-32]
a0009b68:	e51b3014 	ldr	r3, [fp, #-20]
a0009b6c:	e3530000 	cmp	r3, #0	; 0x0
a0009b70:	1a000002 	bne	a0009b80 <getc_timed+0x3c>
a0009b74:	e3e03000 	mvn	r3, #0	; 0x0
a0009b78:	e50b3028 	str	r3, [fp, #-40]
a0009b7c:	ea000059 	b	a0009ce8 <getc_timed+0x1a4>
a0009b80:	e51b2014 	ldr	r2, [fp, #-20]
a0009b84:	e3a03ee6 	mov	r3, #3680	; 0xe60
a0009b88:	e2833006 	add	r3, r3, #6	; 0x6
a0009b8c:	e0030392 	mul	r3, r2, r3
a0009b90:	e50b3018 	str	r3, [fp, #-24]
a0009b94:	e3a03141 	mov	r3, #1073741840	; 0x40000010
a0009b98:	e283360a 	add	r3, r3, #10485760	; 0xa00000
a0009b9c:	e5932000 	ldr	r2, [r3]
a0009ba0:	e51b3018 	ldr	r3, [fp, #-24]
a0009ba4:	e0823003 	add	r3, r2, r3
a0009ba8:	e50b301c 	str	r3, [fp, #-28]
a0009bac:	e3a03151 	mov	r3, #1073741844	; 0x40000014
a0009bb0:	e283360a 	add	r3, r3, #10485760	; 0xa00000
a0009bb4:	e3a02003 	mov	r2, #3	; 0x3
a0009bb8:	e5832000 	str	r2, [r3]
a0009bbc:	e3a03101 	mov	r3, #1073741824	; 0x40000000
a0009bc0:	e283360a 	add	r3, r3, #10485760	; 0xa00000
a0009bc4:	e51b201c 	ldr	r2, [fp, #-28]
a0009bc8:	e5832000 	str	r2, [r3]
a0009bcc:	e3a02111 	mov	r2, #1073741828	; 0x40000004
a0009bd0:	e282260a 	add	r2, r2, #10485760	; 0xa00000
a0009bd4:	e3a03141 	mov	r3, #1073741840	; 0x40000010
a0009bd8:	e283360a 	add	r3, r3, #10485760	; 0xa00000
a0009bdc:	e5933000 	ldr	r3, [r3]
a0009be0:	e2833707 	add	r3, r3, #1835008	; 0x1c0000
a0009be4:	e2833c1f 	add	r3, r3, #7936	; 0x1f00
a0009be8:	e2833038 	add	r3, r3, #56	; 0x38
a0009bec:	e5823000 	str	r3, [r2]
a0009bf0:	e3a03171 	mov	r3, #1073741852	; 0x4000001c
a0009bf4:	e283360a 	add	r3, r3, #10485760	; 0xa00000
a0009bf8:	e3a02003 	mov	r2, #3	; 0x3
a0009bfc:	e5832000 	str	r2, [r3]
a0009c00:	e3a03151 	mov	r3, #1073741844	; 0x40000014
a0009c04:	e283360a 	add	r3, r3, #10485760	; 0xa00000
a0009c08:	e5933000 	ldr	r3, [r3]
a0009c0c:	e2233001 	eor	r3, r3, #1	; 0x1
a0009c10:	e2033001 	and	r3, r3, #1	; 0x1
a0009c14:	e3530000 	cmp	r3, #0	; 0x0
a0009c18:	0a00002c 	beq	a0009cd0 <getc_timed+0x18c>
a0009c1c:	eb0004e0 	bl	a000afa4 <SerialIsReadyChar>
a0009c20:	e1a03000 	mov	r3, r0
a0009c24:	e3530000 	cmp	r3, #0	; 0x0
a0009c28:	0a00000e 	beq	a0009c68 <getc_timed+0x124>
a0009c2c:	eb0004fb 	bl	a000b020 <SerialIsGetChar>
a0009c30:	e54b0021 	strb	r0, [fp, #-33]
a0009c34:	e55b200d 	ldrb	r2, [fp, #-13]
a0009c38:	e55b3021 	ldrb	r3, [fp, #-33]
a0009c3c:	e1520003 	cmp	r2, r3
a0009c40:	1a000002 	bne	a0009c50 <getc_timed+0x10c>
a0009c44:	e3a03000 	mov	r3, #0	; 0x0
a0009c48:	e50b3028 	str	r3, [fp, #-40]
a0009c4c:	ea000025 	b	a0009ce8 <getc_timed+0x1a4>
a0009c50:	e55b3021 	ldrb	r3, [fp, #-33]
a0009c54:	e353000d 	cmp	r3, #13	; 0xd
a0009c58:	1a000002 	bne	a0009c68 <getc_timed+0x124>
a0009c5c:	e3e03000 	mvn	r3, #0	; 0x0
a0009c60:	e50b3028 	str	r3, [fp, #-40]
a0009c64:	ea00001f 	b	a0009ce8 <getc_timed+0x1a4>
a0009c68:	e3a03151 	mov	r3, #1073741844	; 0x40000014
a0009c6c:	e283360a 	add	r3, r3, #10485760	; 0xa00000
a0009c70:	e5933000 	ldr	r3, [r3]
a0009c74:	e1a030a3 	mov	r3, r3, lsr #1
a0009c78:	e2033001 	and	r3, r3, #1	; 0x1
a0009c7c:	e3530000 	cmp	r3, #0	; 0x0
a0009c80:	0affffde 	beq	a0009c00 <getc_timed+0xbc>
a0009c84:	e3a03151 	mov	r3, #1073741844	; 0x40000014
a0009c88:	e283360a 	add	r3, r3, #10485760	; 0xa00000
a0009c8c:	e3a02002 	mov	r2, #2	; 0x2
a0009c90:	e5832000 	str	r2, [r3]
a0009c94:	e3a02111 	mov	r2, #1073741828	; 0x40000004
a0009c98:	e282260a 	add	r2, r2, #10485760	; 0xa00000
a0009c9c:	e3a03141 	mov	r3, #1073741840	; 0x40000010
a0009ca0:	e283360a 	add	r3, r3, #10485760	; 0xa00000
a0009ca4:	e5933000 	ldr	r3, [r3]
a0009ca8:	e2833707 	add	r3, r3, #1835008	; 0x1c0000
a0009cac:	e2833c1f 	add	r3, r3, #7936	; 0x1f00
a0009cb0:	e2833038 	add	r3, r3, #56	; 0x38
a0009cb4:	e5823000 	str	r3, [r2]
a0009cb8:	e51b3020 	ldr	r3, [fp, #-32]
a0009cbc:	e2833001 	add	r3, r3, #1	; 0x1
a0009cc0:	e50b3020 	str	r3, [fp, #-32]
a0009cc4:	e59f0028 	ldr	r0, [pc, #40]	; a0009cf4 <.text+0x1cf4>
a0009cc8:	ebfffe19 	bl	a0009534 <printf>
a0009ccc:	eaffffcb 	b	a0009c00 <getc_timed+0xbc>
a0009cd0:	e3a03171 	mov	r3, #1073741852	; 0x4000001c
a0009cd4:	e283360a 	add	r3, r3, #10485760	; 0xa00000
a0009cd8:	e3a02000 	mov	r2, #0	; 0x0
a0009cdc:	e5832000 	str	r2, [r3]
a0009ce0:	e3e03000 	mvn	r3, #0	; 0x0
a0009ce4:	e50b3028 	str	r3, [fp, #-40]
a0009ce8:	e51b0028 	ldr	r0, [fp, #-40]
a0009cec:	e24bd00c 	sub	sp, fp, #12	; 0xc
a0009cf0:	e89da800 	ldmia	sp, {fp, sp, pc}
a0009cf4:	a000be30 	andge	fp, r0, r0, lsr lr

a0009cf8 <strnicmp>:
a0009cf8:	e1a0c00d 	mov	ip, sp
a0009cfc:	e92dd800 	stmdb	sp!, {fp, ip, lr, pc}
a0009d00:	e24cb004 	sub	fp, ip, #4	; 0x4
a0009d04:	e24dd010 	sub	sp, sp, #16	; 0x10
a0009d08:	e50b0010 	str	r0, [fp, #-16]
a0009d0c:	e50b1014 	str	r1, [fp, #-20]
a0009d10:	e50b2018 	str	r2, [fp, #-24]
a0009d14:	e3a03000 	mov	r3, #0	; 0x0
a0009d18:	e54b3019 	strb	r3, [fp, #-25]
a0009d1c:	e3a03000 	mov	r3, #0	; 0x0
a0009d20:	e54b301a 	strb	r3, [fp, #-26]
a0009d24:	e51b3018 	ldr	r3, [fp, #-24]
a0009d28:	e3530000 	cmp	r3, #0	; 0x0
a0009d2c:	0a00002d 	beq	a0009de8 <strnicmp+0xf0>
a0009d30:	e51b3010 	ldr	r3, [fp, #-16]
a0009d34:	e5d33000 	ldrb	r3, [r3]
a0009d38:	e54b3019 	strb	r3, [fp, #-25]
a0009d3c:	e51b3014 	ldr	r3, [fp, #-20]
a0009d40:	e5d33000 	ldrb	r3, [r3]
a0009d44:	e54b301a 	strb	r3, [fp, #-26]
a0009d48:	e51b3010 	ldr	r3, [fp, #-16]
a0009d4c:	e2833001 	add	r3, r3, #1	; 0x1
a0009d50:	e50b3010 	str	r3, [fp, #-16]
a0009d54:	e51b3014 	ldr	r3, [fp, #-20]
a0009d58:	e2833001 	add	r3, r3, #1	; 0x1
a0009d5c:	e50b3014 	str	r3, [fp, #-20]
a0009d60:	e55b3019 	ldrb	r3, [fp, #-25]
a0009d64:	e3530000 	cmp	r3, #0	; 0x0
a0009d68:	1a000000 	bne	a0009d70 <strnicmp+0x78>
a0009d6c:	ea00001d 	b	a0009de8 <strnicmp+0xf0>
a0009d70:	e55b301a 	ldrb	r3, [fp, #-26]
a0009d74:	e3530000 	cmp	r3, #0	; 0x0
a0009d78:	1a000000 	bne	a0009d80 <strnicmp+0x88>
a0009d7c:	ea000019 	b	a0009de8 <strnicmp+0xf0>
a0009d80:	e55b2019 	ldrb	r2, [fp, #-25]
a0009d84:	e55b301a 	ldrb	r3, [fp, #-26]
a0009d88:	e1520003 	cmp	r2, r3
a0009d8c:	1a000000 	bne	a0009d94 <strnicmp+0x9c>
a0009d90:	ea00000e 	b	a0009dd0 <strnicmp+0xd8>
a0009d94:	e55b3019 	ldrb	r3, [fp, #-25]
a0009d98:	e1a00003 	mov	r0, r3
a0009d9c:	eb000017 	bl	a0009e00 <__tolower>
a0009da0:	e1a03000 	mov	r3, r0
a0009da4:	e54b3019 	strb	r3, [fp, #-25]
a0009da8:	e55b301a 	ldrb	r3, [fp, #-26]
a0009dac:	e1a00003 	mov	r0, r3
a0009db0:	eb000012 	bl	a0009e00 <__tolower>
a0009db4:	e1a03000 	mov	r3, r0
a0009db8:	e54b301a 	strb	r3, [fp, #-26]
a0009dbc:	e55b2019 	ldrb	r2, [fp, #-25]
a0009dc0:	e55b301a 	ldrb	r3, [fp, #-26]
a0009dc4:	e1520003 	cmp	r2, r3
a0009dc8:	0a000000 	beq	a0009dd0 <strnicmp+0xd8>
a0009dcc:	ea000005 	b	a0009de8 <strnicmp+0xf0>
a0009dd0:	e51b3018 	ldr	r3, [fp, #-24]
a0009dd4:	e2433001 	sub	r3, r3, #1	; 0x1
a0009dd8:	e50b3018 	str	r3, [fp, #-24]
a0009ddc:	e3530000 	cmp	r3, #0	; 0x0
a0009de0:	0a000000 	beq	a0009de8 <strnicmp+0xf0>
a0009de4:	eaffffd1 	b	a0009d30 <strnicmp+0x38>
a0009de8:	e55b3019 	ldrb	r3, [fp, #-25]
a0009dec:	e55b201a 	ldrb	r2, [fp, #-26]
a0009df0:	e0623003 	rsb	r3, r2, r3
a0009df4:	e1a00003 	mov	r0, r3
a0009df8:	e24bd00c 	sub	sp, fp, #12	; 0xc
a0009dfc:	e89da800 	ldmia	sp, {fp, sp, pc}

a0009e00 <__tolower>:
a0009e00:	e1a0c00d 	mov	ip, sp
a0009e04:	e92dd800 	stmdb	sp!, {fp, ip, lr, pc}
a0009e08:	e24cb004 	sub	fp, ip, #4	; 0x4
a0009e0c:	e24dd004 	sub	sp, sp, #4	; 0x4
a0009e10:	e1a03000 	mov	r3, r0
a0009e14:	e54b300d 	strb	r3, [fp, #-13]
a0009e18:	e59f2028 	ldr	r2, [pc, #40]	; a0009e48 <.text+0x1e48>
a0009e1c:	e55b300d 	ldrb	r3, [fp, #-13]
a0009e20:	e7d23003 	ldrb	r3, [r2, r3]
a0009e24:	e2033001 	and	r3, r3, #1	; 0x1
a0009e28:	e3530000 	cmp	r3, #0	; 0x0
a0009e2c:	0a000002 	beq	a0009e3c <__tolower+0x3c>
a0009e30:	e55b300d 	ldrb	r3, [fp, #-13]
a0009e34:	e2833020 	add	r3, r3, #32	; 0x20
a0009e38:	e54b300d 	strb	r3, [fp, #-13]
a0009e3c:	e55b300d 	ldrb	r3, [fp, #-13]
a0009e40:	e1a00003 	mov	r0, r3
a0009e44:	e99da800 	ldmib	sp, {fp, sp, pc}
a0009e48:	a000bf58 	andge	fp, r0, r8, asr pc

a0009e4c <strcpy>:
a0009e4c:	e1a0c00d 	mov	ip, sp
a0009e50:	e92dd800 	stmdb	sp!, {fp, ip, lr, pc}
a0009e54:	e24cb004 	sub	fp, ip, #4	; 0x4
a0009e58:	e24dd00c 	sub	sp, sp, #12	; 0xc
a0009e5c:	e50b0010 	str	r0, [fp, #-16]
a0009e60:	e50b1014 	str	r1, [fp, #-20]
a0009e64:	e51b3010 	ldr	r3, [fp, #-16]
a0009e68:	e50b3018 	str	r3, [fp, #-24]
a0009e6c:	e24bc010 	sub	ip, fp, #16	; 0x10
a0009e70:	e59c2000 	ldr	r2, [ip]
a0009e74:	e24b1014 	sub	r1, fp, #20	; 0x14
a0009e78:	e5913000 	ldr	r3, [r1]
a0009e7c:	e5d30000 	ldrb	r0, [r3]
a0009e80:	e2833001 	add	r3, r3, #1	; 0x1
a0009e84:	e5813000 	str	r3, [r1]
a0009e88:	e1a03002 	mov	r3, r2
a0009e8c:	e5c30000 	strb	r0, [r3]
a0009e90:	e2822001 	add	r2, r2, #1	; 0x1
a0009e94:	e58c2000 	str	r2, [ip]
a0009e98:	e20030ff 	and	r3, r0, #255	; 0xff
a0009e9c:	e3530000 	cmp	r3, #0	; 0x0
a0009ea0:	0a000000 	beq	a0009ea8 <strcpy+0x5c>
a0009ea4:	eafffff0 	b	a0009e6c <strcpy+0x20>
a0009ea8:	e51b3018 	ldr	r3, [fp, #-24]
a0009eac:	e1a00003 	mov	r0, r3
a0009eb0:	e24bd00c 	sub	sp, fp, #12	; 0xc
a0009eb4:	e89da800 	ldmia	sp, {fp, sp, pc}

a0009eb8 <strncpy>:
a0009eb8:	e1a0c00d 	mov	ip, sp
a0009ebc:	e92dd800 	stmdb	sp!, {fp, ip, lr, pc}
a0009ec0:	e24cb004 	sub	fp, ip, #4	; 0x4
a0009ec4:	e24dd010 	sub	sp, sp, #16	; 0x10
a0009ec8:	e50b0010 	str	r0, [fp, #-16]
a0009ecc:	e50b1014 	str	r1, [fp, #-20]
a0009ed0:	e50b2018 	str	r2, [fp, #-24]
a0009ed4:	e51b3010 	ldr	r3, [fp, #-16]
a0009ed8:	e50b301c 	str	r3, [fp, #-28]
a0009edc:	e51b3018 	ldr	r3, [fp, #-24]
a0009ee0:	e2433001 	sub	r3, r3, #1	; 0x1
a0009ee4:	e50b3018 	str	r3, [fp, #-24]
a0009ee8:	e3730001 	cmn	r3, #1	; 0x1
a0009eec:	0a00000e 	beq	a0009f2c <strncpy+0x74>
a0009ef0:	e24bc010 	sub	ip, fp, #16	; 0x10
a0009ef4:	e59c2000 	ldr	r2, [ip]
a0009ef8:	e24b1014 	sub	r1, fp, #20	; 0x14
a0009efc:	e5913000 	ldr	r3, [r1]
a0009f00:	e5d30000 	ldrb	r0, [r3]
a0009f04:	e2833001 	add	r3, r3, #1	; 0x1
a0009f08:	e5813000 	str	r3, [r1]
a0009f0c:	e1a03002 	mov	r3, r2
a0009f10:	e5c30000 	strb	r0, [r3]
a0009f14:	e2822001 	add	r2, r2, #1	; 0x1
a0009f18:	e58c2000 	str	r2, [ip]
a0009f1c:	e20030ff 	and	r3, r0, #255	; 0xff
a0009f20:	e3530000 	cmp	r3, #0	; 0x0
a0009f24:	0a000000 	beq	a0009f2c <strncpy+0x74>
a0009f28:	eaffffeb 	b	a0009edc <strncpy+0x24>
a0009f2c:	e51b301c 	ldr	r3, [fp, #-28]
a0009f30:	e1a00003 	mov	r0, r3
a0009f34:	e24bd00c 	sub	sp, fp, #12	; 0xc
a0009f38:	e89da800 	ldmia	sp, {fp, sp, pc}

a0009f3c <strcat>:
a0009f3c:	e1a0c00d 	mov	ip, sp
a0009f40:	e92dd800 	stmdb	sp!, {fp, ip, lr, pc}
a0009f44:	e24cb004 	sub	fp, ip, #4	; 0x4
a0009f48:	e24dd00c 	sub	sp, sp, #12	; 0xc
a0009f4c:	e50b0010 	str	r0, [fp, #-16]
a0009f50:	e50b1014 	str	r1, [fp, #-20]
a0009f54:	e51b3010 	ldr	r3, [fp, #-16]
a0009f58:	e50b3018 	str	r3, [fp, #-24]
a0009f5c:	e51b3010 	ldr	r3, [fp, #-16]
a0009f60:	e5d33000 	ldrb	r3, [r3]
a0009f64:	e3530000 	cmp	r3, #0	; 0x0
a0009f68:	0a000003 	beq	a0009f7c <strcat+0x40>
a0009f6c:	e51b3010 	ldr	r3, [fp, #-16]
a0009f70:	e2833001 	add	r3, r3, #1	; 0x1
a0009f74:	e50b3010 	str	r3, [fp, #-16]
a0009f78:	eafffff7 	b	a0009f5c <strcat+0x20>
a0009f7c:	e24bc010 	sub	ip, fp, #16	; 0x10
a0009f80:	e59c2000 	ldr	r2, [ip]
a0009f84:	e24b1014 	sub	r1, fp, #20	; 0x14
a0009f88:	e5913000 	ldr	r3, [r1]
a0009f8c:	e5d30000 	ldrb	r0, [r3]
a0009f90:	e2833001 	add	r3, r3, #1	; 0x1
a0009f94:	e5813000 	str	r3, [r1]
a0009f98:	e1a03002 	mov	r3, r2
a0009f9c:	e5c30000 	strb	r0, [r3]
a0009fa0:	e2822001 	add	r2, r2, #1	; 0x1
a0009fa4:	e58c2000 	str	r2, [ip]
a0009fa8:	e20030ff 	and	r3, r0, #255	; 0xff
a0009fac:	e3530000 	cmp	r3, #0	; 0x0
a0009fb0:	0a000000 	beq	a0009fb8 <strcat+0x7c>
a0009fb4:	eafffff0 	b	a0009f7c <strcat+0x40>
a0009fb8:	e51b3018 	ldr	r3, [fp, #-24]
a0009fbc:	e1a00003 	mov	r0, r3
a0009fc0:	e24bd00c 	sub	sp, fp, #12	; 0xc
a0009fc4:	e89da800 	ldmia	sp, {fp, sp, pc}

a0009fc8 <strncat>:
a0009fc8:	e1a0c00d 	mov	ip, sp
a0009fcc:	e92dd800 	stmdb	sp!, {fp, ip, lr, pc}
a0009fd0:	e24cb004 	sub	fp, ip, #4	; 0x4
a0009fd4:	e24dd010 	sub	sp, sp, #16	; 0x10
a0009fd8:	e50b0010 	str	r0, [fp, #-16]
a0009fdc:	e50b1014 	str	r1, [fp, #-20]
a0009fe0:	e50b2018 	str	r2, [fp, #-24]
a0009fe4:	e51b3010 	ldr	r3, [fp, #-16]
a0009fe8:	e50b301c 	str	r3, [fp, #-28]
a0009fec:	e51b3018 	ldr	r3, [fp, #-24]
a0009ff0:	e3530000 	cmp	r3, #0	; 0x0
a0009ff4:	0a00001d 	beq	a000a070 <strncat+0xa8>
a0009ff8:	e51b3010 	ldr	r3, [fp, #-16]
a0009ffc:	e5d33000 	ldrb	r3, [r3]
a000a000:	e3530000 	cmp	r3, #0	; 0x0
a000a004:	0a000003 	beq	a000a018 <strncat+0x50>
a000a008:	e51b3010 	ldr	r3, [fp, #-16]
a000a00c:	e2833001 	add	r3, r3, #1	; 0x1
a000a010:	e50b3010 	str	r3, [fp, #-16]
a000a014:	eafffff7 	b	a0009ff8 <strncat+0x30>
a000a018:	e24bc010 	sub	ip, fp, #16	; 0x10
a000a01c:	e59c2000 	ldr	r2, [ip]
a000a020:	e24b1014 	sub	r1, fp, #20	; 0x14
a000a024:	e5913000 	ldr	r3, [r1]
a000a028:	e5d30000 	ldrb	r0, [r3]
a000a02c:	e2833001 	add	r3, r3, #1	; 0x1
a000a030:	e5813000 	str	r3, [r1]
a000a034:	e1a03002 	mov	r3, r2
a000a038:	e5c30000 	strb	r0, [r3]
a000a03c:	e2822001 	add	r2, r2, #1	; 0x1
a000a040:	e58c2000 	str	r2, [ip]
a000a044:	e20030ff 	and	r3, r0, #255	; 0xff
a000a048:	e3530000 	cmp	r3, #0	; 0x0
a000a04c:	0a000007 	beq	a000a070 <strncat+0xa8>
a000a050:	e51b3018 	ldr	r3, [fp, #-24]
a000a054:	e2433001 	sub	r3, r3, #1	; 0x1
a000a058:	e50b3018 	str	r3, [fp, #-24]
a000a05c:	e3530000 	cmp	r3, #0	; 0x0
a000a060:	1affffec 	bne	a000a018 <strncat+0x50>
a000a064:	e51b3010 	ldr	r3, [fp, #-16]
a000a068:	e3a02000 	mov	r2, #0	; 0x0
a000a06c:	e5c32000 	strb	r2, [r3]
a000a070:	e51b301c 	ldr	r3, [fp, #-28]
a000a074:	e1a00003 	mov	r0, r3
a000a078:	e24bd00c 	sub	sp, fp, #12	; 0xc
a000a07c:	e89da800 	ldmia	sp, {fp, sp, pc}

a000a080 <strcmp>:
a000a080:	e1a0c00d 	mov	ip, sp
a000a084:	e92dd800 	stmdb	sp!, {fp, ip, lr, pc}
a000a088:	e24cb004 	sub	fp, ip, #4	; 0x4
a000a08c:	e24dd00c 	sub	sp, sp, #12	; 0xc
a000a090:	e50b0010 	str	r0, [fp, #-16]
a000a094:	e50b1014 	str	r1, [fp, #-20]
a000a098:	e51b1010 	ldr	r1, [fp, #-16]
a000a09c:	e24b0014 	sub	r0, fp, #20	; 0x14
a000a0a0:	e5902000 	ldr	r2, [r0]
a000a0a4:	e1a03002 	mov	r3, r2
a000a0a8:	e5d11000 	ldrb	r1, [r1]
a000a0ac:	e5d33000 	ldrb	r3, [r3]
a000a0b0:	e0633001 	rsb	r3, r3, r1
a000a0b4:	e20310ff 	and	r1, r3, #255	; 0xff
a000a0b8:	e50b1018 	str	r1, [fp, #-24]
a000a0bc:	e2822001 	add	r2, r2, #1	; 0x1
a000a0c0:	e5802000 	str	r2, [r0]
a000a0c4:	e1a03c03 	mov	r3, r3, lsl #24
a000a0c8:	e1a03c43 	mov	r3, r3, asr #24
a000a0cc:	e3530000 	cmp	r3, #0	; 0x0
a000a0d0:	1a000007 	bne	a000a0f4 <strcmp+0x74>
a000a0d4:	e24b2010 	sub	r2, fp, #16	; 0x10
a000a0d8:	e5923000 	ldr	r3, [r2]
a000a0dc:	e5d31000 	ldrb	r1, [r3]
a000a0e0:	e2833001 	add	r3, r3, #1	; 0x1
a000a0e4:	e5823000 	str	r3, [r2]
a000a0e8:	e20130ff 	and	r3, r1, #255	; 0xff
a000a0ec:	e3530000 	cmp	r3, #0	; 0x0
a000a0f0:	1affffe8 	bne	a000a098 <strcmp+0x18>
a000a0f4:	e51b2018 	ldr	r2, [fp, #-24]
a000a0f8:	e1a03c02 	mov	r3, r2, lsl #24
a000a0fc:	e1a03c43 	mov	r3, r3, asr #24
a000a100:	e1a00003 	mov	r0, r3
a000a104:	e24bd00c 	sub	sp, fp, #12	; 0xc
a000a108:	e89da800 	ldmia	sp, {fp, sp, pc}

a000a10c <strncmp>:
a000a10c:	e1a0c00d 	mov	ip, sp
a000a110:	e92dd800 	stmdb	sp!, {fp, ip, lr, pc}
a000a114:	e24cb004 	sub	fp, ip, #4	; 0x4
a000a118:	e24dd010 	sub	sp, sp, #16	; 0x10
a000a11c:	e50b0010 	str	r0, [fp, #-16]
a000a120:	e50b1014 	str	r1, [fp, #-20]
a000a124:	e50b2018 	str	r2, [fp, #-24]
a000a128:	e3a01000 	mov	r1, #0	; 0x0
a000a12c:	e50b101c 	str	r1, [fp, #-28]
a000a130:	e51b3018 	ldr	r3, [fp, #-24]
a000a134:	e3530000 	cmp	r3, #0	; 0x0
a000a138:	0a00001b 	beq	a000a1ac <strncmp+0xa0>
a000a13c:	e51b1010 	ldr	r1, [fp, #-16]
a000a140:	e24b0014 	sub	r0, fp, #20	; 0x14
a000a144:	e5902000 	ldr	r2, [r0]
a000a148:	e1a03002 	mov	r3, r2
a000a14c:	e5d11000 	ldrb	r1, [r1]
a000a150:	e5d33000 	ldrb	r3, [r3]
a000a154:	e0633001 	rsb	r3, r3, r1
a000a158:	e20310ff 	and	r1, r3, #255	; 0xff
a000a15c:	e50b101c 	str	r1, [fp, #-28]
a000a160:	e2822001 	add	r2, r2, #1	; 0x1
a000a164:	e5802000 	str	r2, [r0]
a000a168:	e1a03c03 	mov	r3, r3, lsl #24
a000a16c:	e1a03c43 	mov	r3, r3, asr #24
a000a170:	e3530000 	cmp	r3, #0	; 0x0
a000a174:	1a00000c 	bne	a000a1ac <strncmp+0xa0>
a000a178:	e24b2010 	sub	r2, fp, #16	; 0x10
a000a17c:	e5923000 	ldr	r3, [r2]
a000a180:	e5d31000 	ldrb	r1, [r3]
a000a184:	e2833001 	add	r3, r3, #1	; 0x1
a000a188:	e5823000 	str	r3, [r2]
a000a18c:	e20130ff 	and	r3, r1, #255	; 0xff
a000a190:	e3530000 	cmp	r3, #0	; 0x0
a000a194:	1a000000 	bne	a000a19c <strncmp+0x90>
a000a198:	ea000003 	b	a000a1ac <strncmp+0xa0>
a000a19c:	e51b3018 	ldr	r3, [fp, #-24]
a000a1a0:	e2433001 	sub	r3, r3, #1	; 0x1
a000a1a4:	e50b3018 	str	r3, [fp, #-24]
a000a1a8:	eaffffe0 	b	a000a130 <strncmp+0x24>
a000a1ac:	e51b201c 	ldr	r2, [fp, #-28]
a000a1b0:	e1a03c02 	mov	r3, r2, lsl #24
a000a1b4:	e1a03c43 	mov	r3, r3, asr #24
a000a1b8:	e1a00003 	mov	r0, r3
a000a1bc:	e24bd00c 	sub	sp, fp, #12	; 0xc
a000a1c0:	e89da800 	ldmia	sp, {fp, sp, pc}

a000a1c4 <strchr>:
a000a1c4:	e1a0c00d 	mov	ip, sp
a000a1c8:	e92dd800 	stmdb	sp!, {fp, ip, lr, pc}
a000a1cc:	e24cb004 	sub	fp, ip, #4	; 0x4
a000a1d0:	e24dd00c 	sub	sp, sp, #12	; 0xc
a000a1d4:	e50b0010 	str	r0, [fp, #-16]
a000a1d8:	e50b1014 	str	r1, [fp, #-20]
a000a1dc:	e51b3010 	ldr	r3, [fp, #-16]
a000a1e0:	e51b2014 	ldr	r2, [fp, #-20]
a000a1e4:	e5d31000 	ldrb	r1, [r3]
a000a1e8:	e20230ff 	and	r3, r2, #255	; 0xff
a000a1ec:	e1510003 	cmp	r1, r3
a000a1f0:	0a00000a 	beq	a000a220 <strchr+0x5c>
a000a1f4:	e51b3010 	ldr	r3, [fp, #-16]
a000a1f8:	e5d33000 	ldrb	r3, [r3]
a000a1fc:	e3530000 	cmp	r3, #0	; 0x0
a000a200:	1a000002 	bne	a000a210 <strchr+0x4c>
a000a204:	e3a03000 	mov	r3, #0	; 0x0
a000a208:	e50b3018 	str	r3, [fp, #-24]
a000a20c:	ea000005 	b	a000a228 <strchr+0x64>
a000a210:	e51b3010 	ldr	r3, [fp, #-16]
a000a214:	e2833001 	add	r3, r3, #1	; 0x1
a000a218:	e50b3010 	str	r3, [fp, #-16]
a000a21c:	eaffffee 	b	a000a1dc <strchr+0x18>
a000a220:	e51b3010 	ldr	r3, [fp, #-16]
a000a224:	e50b3018 	str	r3, [fp, #-24]
a000a228:	e51b0018 	ldr	r0, [fp, #-24]
a000a22c:	e24bd00c 	sub	sp, fp, #12	; 0xc
a000a230:	e89da800 	ldmia	sp, {fp, sp, pc}

a000a234 <strlen>:
a000a234:	e1a0c00d 	mov	ip, sp
a000a238:	e92dd800 	stmdb	sp!, {fp, ip, lr, pc}
a000a23c:	e24cb004 	sub	fp, ip, #4	; 0x4
a000a240:	e24dd008 	sub	sp, sp, #8	; 0x8
a000a244:	e50b0010 	str	r0, [fp, #-16]
a000a248:	e51b3010 	ldr	r3, [fp, #-16]
a000a24c:	e50b3014 	str	r3, [fp, #-20]
a000a250:	e51b3014 	ldr	r3, [fp, #-20]
a000a254:	e5d33000 	ldrb	r3, [r3]
a000a258:	e3530000 	cmp	r3, #0	; 0x0
a000a25c:	0a000003 	beq	a000a270 <strlen+0x3c>
a000a260:	e51b3014 	ldr	r3, [fp, #-20]
a000a264:	e2833001 	add	r3, r3, #1	; 0x1
a000a268:	e50b3014 	str	r3, [fp, #-20]
a000a26c:	eafffff7 	b	a000a250 <strlen+0x1c>
a000a270:	e51b2014 	ldr	r2, [fp, #-20]
a000a274:	e51b3010 	ldr	r3, [fp, #-16]
a000a278:	e0633002 	rsb	r3, r3, r2
a000a27c:	e1a00003 	mov	r0, r3
a000a280:	e24bd00c 	sub	sp, fp, #12	; 0xc
a000a284:	e89da800 	ldmia	sp, {fp, sp, pc}

a000a288 <strrchr>:
a000a288:	e1a0c00d 	mov	ip, sp
a000a28c:	e92dd800 	stmdb	sp!, {fp, ip, lr, pc}
a000a290:	e24cb004 	sub	fp, ip, #4	; 0x4
a000a294:	e24dd010 	sub	sp, sp, #16	; 0x10
a000a298:	e50b0010 	str	r0, [fp, #-16]
a000a29c:	e50b1014 	str	r1, [fp, #-20]
a000a2a0:	e51b0010 	ldr	r0, [fp, #-16]
a000a2a4:	ebffffe2 	bl	a000a234 <strlen>
a000a2a8:	e1a03000 	mov	r3, r0
a000a2ac:	e51b2010 	ldr	r2, [fp, #-16]
a000a2b0:	e0833002 	add	r3, r3, r2
a000a2b4:	e50b3018 	str	r3, [fp, #-24]
a000a2b8:	e51b3018 	ldr	r3, [fp, #-24]
a000a2bc:	e51b2014 	ldr	r2, [fp, #-20]
a000a2c0:	e5d31000 	ldrb	r1, [r3]
a000a2c4:	e20230ff 	and	r3, r2, #255	; 0xff
a000a2c8:	e1510003 	cmp	r1, r3
a000a2cc:	1a000002 	bne	a000a2dc <strrchr+0x54>
a000a2d0:	e51b3018 	ldr	r3, [fp, #-24]
a000a2d4:	e50b301c 	str	r3, [fp, #-28]
a000a2d8:	ea000009 	b	a000a304 <strrchr+0x7c>
a000a2dc:	e51b3018 	ldr	r3, [fp, #-24]
a000a2e0:	e2433001 	sub	r3, r3, #1	; 0x1
a000a2e4:	e1a02003 	mov	r2, r3
a000a2e8:	e50b2018 	str	r2, [fp, #-24]
a000a2ec:	e51b3010 	ldr	r3, [fp, #-16]
a000a2f0:	e1520003 	cmp	r2, r3
a000a2f4:	3a000000 	bcc	a000a2fc <strrchr+0x74>
a000a2f8:	eaffffee 	b	a000a2b8 <strrchr+0x30>
a000a2fc:	e3a03000 	mov	r3, #0	; 0x0
a000a300:	e50b301c 	str	r3, [fp, #-28]
a000a304:	e51b001c 	ldr	r0, [fp, #-28]
a000a308:	e24bd00c 	sub	sp, fp, #12	; 0xc
a000a30c:	e89da800 	ldmia	sp, {fp, sp, pc}

a000a310 <strnlen>:
a000a310:	e1a0c00d 	mov	ip, sp
a000a314:	e92dd800 	stmdb	sp!, {fp, ip, lr, pc}
a000a318:	e24cb004 	sub	fp, ip, #4	; 0x4
a000a31c:	e24dd00c 	sub	sp, sp, #12	; 0xc
a000a320:	e50b0010 	str	r0, [fp, #-16]
a000a324:	e50b1014 	str	r1, [fp, #-20]
a000a328:	e51b3010 	ldr	r3, [fp, #-16]
a000a32c:	e50b3018 	str	r3, [fp, #-24]
a000a330:	e51b3014 	ldr	r3, [fp, #-20]
a000a334:	e2433001 	sub	r3, r3, #1	; 0x1
a000a338:	e50b3014 	str	r3, [fp, #-20]
a000a33c:	e3730001 	cmn	r3, #1	; 0x1
a000a340:	0a000007 	beq	a000a364 <strnlen+0x54>
a000a344:	e51b3018 	ldr	r3, [fp, #-24]
a000a348:	e5d33000 	ldrb	r3, [r3]
a000a34c:	e3530000 	cmp	r3, #0	; 0x0
a000a350:	0a000003 	beq	a000a364 <strnlen+0x54>
a000a354:	e51b3018 	ldr	r3, [fp, #-24]
a000a358:	e2833001 	add	r3, r3, #1	; 0x1
a000a35c:	e50b3018 	str	r3, [fp, #-24]
a000a360:	eafffff2 	b	a000a330 <strnlen+0x20>
a000a364:	e51b2018 	ldr	r2, [fp, #-24]
a000a368:	e51b3010 	ldr	r3, [fp, #-16]
a000a36c:	e0633002 	rsb	r3, r3, r2
a000a370:	e1a00003 	mov	r0, r3
a000a374:	e24bd00c 	sub	sp, fp, #12	; 0xc
a000a378:	e89da800 	ldmia	sp, {fp, sp, pc}

a000a37c <strspn>:
a000a37c:	e1a0c00d 	mov	ip, sp
a000a380:	e92dd800 	stmdb	sp!, {fp, ip, lr, pc}
a000a384:	e24cb004 	sub	fp, ip, #4	; 0x4
a000a388:	e24dd018 	sub	sp, sp, #24	; 0x18
a000a38c:	e50b0010 	str	r0, [fp, #-16]
a000a390:	e50b1014 	str	r1, [fp, #-20]
a000a394:	e3a03000 	mov	r3, #0	; 0x0
a000a398:	e50b3020 	str	r3, [fp, #-32]
a000a39c:	e51b3010 	ldr	r3, [fp, #-16]
a000a3a0:	e50b3018 	str	r3, [fp, #-24]
a000a3a4:	e51b3018 	ldr	r3, [fp, #-24]
a000a3a8:	e5d33000 	ldrb	r3, [r3]
a000a3ac:	e3530000 	cmp	r3, #0	; 0x0
a000a3b0:	0a00001e 	beq	a000a430 <strspn+0xb4>
a000a3b4:	e51b3014 	ldr	r3, [fp, #-20]
a000a3b8:	e50b301c 	str	r3, [fp, #-28]
a000a3bc:	e51b301c 	ldr	r3, [fp, #-28]
a000a3c0:	e5d33000 	ldrb	r3, [r3]
a000a3c4:	e3530000 	cmp	r3, #0	; 0x0
a000a3c8:	0a00000a 	beq	a000a3f8 <strspn+0x7c>
a000a3cc:	e51b3018 	ldr	r3, [fp, #-24]
a000a3d0:	e51b201c 	ldr	r2, [fp, #-28]
a000a3d4:	e5d31000 	ldrb	r1, [r3]
a000a3d8:	e5d23000 	ldrb	r3, [r2]
a000a3dc:	e1510003 	cmp	r1, r3
a000a3e0:	1a000000 	bne	a000a3e8 <strspn+0x6c>
a000a3e4:	ea000003 	b	a000a3f8 <strspn+0x7c>
a000a3e8:	e51b301c 	ldr	r3, [fp, #-28]
a000a3ec:	e2833001 	add	r3, r3, #1	; 0x1
a000a3f0:	e50b301c 	str	r3, [fp, #-28]
a000a3f4:	eafffff0 	b	a000a3bc <strspn+0x40>
a000a3f8:	e51b301c 	ldr	r3, [fp, #-28]
a000a3fc:	e5d33000 	ldrb	r3, [r3]
a000a400:	e3530000 	cmp	r3, #0	; 0x0
a000a404:	1a000002 	bne	a000a414 <strspn+0x98>
a000a408:	e51b3020 	ldr	r3, [fp, #-32]
a000a40c:	e50b3024 	str	r3, [fp, #-36]
a000a410:	ea000008 	b	a000a438 <strspn+0xbc>
a000a414:	e51b3020 	ldr	r3, [fp, #-32]
a000a418:	e2833001 	add	r3, r3, #1	; 0x1
a000a41c:	e50b3020 	str	r3, [fp, #-32]
a000a420:	e51b3018 	ldr	r3, [fp, #-24]
a000a424:	e2833001 	add	r3, r3, #1	; 0x1
a000a428:	e50b3018 	str	r3, [fp, #-24]
a000a42c:	eaffffdc 	b	a000a3a4 <strspn+0x28>
a000a430:	e51b3020 	ldr	r3, [fp, #-32]
a000a434:	e50b3024 	str	r3, [fp, #-36]
a000a438:	e51b0024 	ldr	r0, [fp, #-36]
a000a43c:	e24bd00c 	sub	sp, fp, #12	; 0xc
a000a440:	e89da800 	ldmia	sp, {fp, sp, pc}

a000a444 <strpbrk>:
a000a444:	e1a0c00d 	mov	ip, sp
a000a448:	e92dd800 	stmdb	sp!, {fp, ip, lr, pc}
a000a44c:	e24cb004 	sub	fp, ip, #4	; 0x4
a000a450:	e24dd014 	sub	sp, sp, #20	; 0x14
a000a454:	e50b0010 	str	r0, [fp, #-16]
a000a458:	e50b1014 	str	r1, [fp, #-20]
a000a45c:	e51b3010 	ldr	r3, [fp, #-16]
a000a460:	e50b3018 	str	r3, [fp, #-24]
a000a464:	e51b3018 	ldr	r3, [fp, #-24]
a000a468:	e5d33000 	ldrb	r3, [r3]
a000a46c:	e3530000 	cmp	r3, #0	; 0x0
a000a470:	0a000016 	beq	a000a4d0 <strpbrk+0x8c>
a000a474:	e51b3014 	ldr	r3, [fp, #-20]
a000a478:	e50b301c 	str	r3, [fp, #-28]
a000a47c:	e51b301c 	ldr	r3, [fp, #-28]
a000a480:	e5d33000 	ldrb	r3, [r3]
a000a484:	e3530000 	cmp	r3, #0	; 0x0
a000a488:	0a00000c 	beq	a000a4c0 <strpbrk+0x7c>
a000a48c:	e51b3018 	ldr	r3, [fp, #-24]
a000a490:	e51b201c 	ldr	r2, [fp, #-28]
a000a494:	e5d31000 	ldrb	r1, [r3]
a000a498:	e5d23000 	ldrb	r3, [r2]
a000a49c:	e1510003 	cmp	r1, r3
a000a4a0:	1a000002 	bne	a000a4b0 <strpbrk+0x6c>
a000a4a4:	e51b3018 	ldr	r3, [fp, #-24]
a000a4a8:	e50b3020 	str	r3, [fp, #-32]
a000a4ac:	ea000009 	b	a000a4d8 <strpbrk+0x94>
a000a4b0:	e51b301c 	ldr	r3, [fp, #-28]
a000a4b4:	e2833001 	add	r3, r3, #1	; 0x1
a000a4b8:	e50b301c 	str	r3, [fp, #-28]
a000a4bc:	eaffffee 	b	a000a47c <strpbrk+0x38>
a000a4c0:	e51b3018 	ldr	r3, [fp, #-24]
a000a4c4:	e2833001 	add	r3, r3, #1	; 0x1
a000a4c8:	e50b3018 	str	r3, [fp, #-24]
a000a4cc:	eaffffe4 	b	a000a464 <strpbrk+0x20>
a000a4d0:	e3a03000 	mov	r3, #0	; 0x0
a000a4d4:	e50b3020 	str	r3, [fp, #-32]
a000a4d8:	e51b0020 	ldr	r0, [fp, #-32]
a000a4dc:	e24bd00c 	sub	sp, fp, #12	; 0xc
a000a4e0:	e89da800 	ldmia	sp, {fp, sp, pc}

a000a4e4 <strtok>:
a000a4e4:	e1a0c00d 	mov	ip, sp
a000a4e8:	e92dd800 	stmdb	sp!, {fp, ip, lr, pc}
a000a4ec:	e24cb004 	sub	fp, ip, #4	; 0x4
a000a4f0:	e24dd018 	sub	sp, sp, #24	; 0x18
a000a4f4:	e50b0010 	str	r0, [fp, #-16]
a000a4f8:	e50b1014 	str	r1, [fp, #-20]
a000a4fc:	e51b3010 	ldr	r3, [fp, #-16]
a000a500:	e50b3024 	str	r3, [fp, #-36]
a000a504:	e51b3010 	ldr	r3, [fp, #-16]
a000a508:	e3530000 	cmp	r3, #0	; 0x0
a000a50c:	1a000002 	bne	a000a51c <strtok+0x38>
a000a510:	e59f30d4 	ldr	r3, [pc, #212]	; a000a5ec <.text+0x25ec>
a000a514:	e5933000 	ldr	r3, [r3]
a000a518:	e50b3024 	str	r3, [fp, #-36]
a000a51c:	e51b3024 	ldr	r3, [fp, #-36]
a000a520:	e50b3018 	str	r3, [fp, #-24]
a000a524:	e51b3018 	ldr	r3, [fp, #-24]
a000a528:	e3530000 	cmp	r3, #0	; 0x0
a000a52c:	1a000002 	bne	a000a53c <strtok+0x58>
a000a530:	e3a03000 	mov	r3, #0	; 0x0
a000a534:	e50b3020 	str	r3, [fp, #-32]
a000a538:	ea000028 	b	a000a5e0 <strtok+0xfc>
a000a53c:	e51b0018 	ldr	r0, [fp, #-24]
a000a540:	e51b1014 	ldr	r1, [fp, #-20]
a000a544:	ebffff8c 	bl	a000a37c <strspn>
a000a548:	e1a02000 	mov	r2, r0
a000a54c:	e51b3018 	ldr	r3, [fp, #-24]
a000a550:	e0833002 	add	r3, r3, r2
a000a554:	e50b3018 	str	r3, [fp, #-24]
a000a558:	e51b3018 	ldr	r3, [fp, #-24]
a000a55c:	e5d33000 	ldrb	r3, [r3]
a000a560:	e3530000 	cmp	r3, #0	; 0x0
a000a564:	1a000005 	bne	a000a580 <strtok+0x9c>
a000a568:	e59f207c 	ldr	r2, [pc, #124]	; a000a5ec <.text+0x25ec>
a000a56c:	e3a03000 	mov	r3, #0	; 0x0
a000a570:	e5823000 	str	r3, [r2]
a000a574:	e3a03000 	mov	r3, #0	; 0x0
a000a578:	e50b3020 	str	r3, [fp, #-32]
a000a57c:	ea000017 	b	a000a5e0 <strtok+0xfc>
a000a580:	e51b0018 	ldr	r0, [fp, #-24]
a000a584:	e51b1014 	ldr	r1, [fp, #-20]
a000a588:	ebffffad 	bl	a000a444 <strpbrk>
a000a58c:	e1a03000 	mov	r3, r0
a000a590:	e50b301c 	str	r3, [fp, #-28]
a000a594:	e51b301c 	ldr	r3, [fp, #-28]
a000a598:	e3530000 	cmp	r3, #0	; 0x0
a000a59c:	0a00000a 	beq	a000a5cc <strtok+0xe8>
a000a5a0:	e51b301c 	ldr	r3, [fp, #-28]
a000a5a4:	e5d33000 	ldrb	r3, [r3]
a000a5a8:	e3530000 	cmp	r3, #0	; 0x0
a000a5ac:	0a000006 	beq	a000a5cc <strtok+0xe8>
a000a5b0:	e24b001c 	sub	r0, fp, #28	; 0x1c
a000a5b4:	e5902000 	ldr	r2, [r0]
a000a5b8:	e1a01002 	mov	r1, r2
a000a5bc:	e3a03000 	mov	r3, #0	; 0x0
a000a5c0:	e5c13000 	strb	r3, [r1]
a000a5c4:	e2822001 	add	r2, r2, #1	; 0x1
a000a5c8:	e5802000 	str	r2, [r0]
a000a5cc:	e59f3018 	ldr	r3, [pc, #24]	; a000a5ec <.text+0x25ec>
a000a5d0:	e51b201c 	ldr	r2, [fp, #-28]
a000a5d4:	e5832000 	str	r2, [r3]
a000a5d8:	e51b3018 	ldr	r3, [fp, #-24]
a000a5dc:	e50b3020 	str	r3, [fp, #-32]
a000a5e0:	e51b0020 	ldr	r0, [fp, #-32]
a000a5e4:	e24bd00c 	sub	sp, fp, #12	; 0xc
a000a5e8:	e89da800 	ldmia	sp, {fp, sp, pc}
a000a5ec:	a000c168 	andge	ip, r0, r8, ror #2

a000a5f0 <strsep>:
a000a5f0:	e1a0c00d 	mov	ip, sp
a000a5f4:	e92dd800 	stmdb	sp!, {fp, ip, lr, pc}
a000a5f8:	e24cb004 	sub	fp, ip, #4	; 0x4
a000a5fc:	e24dd014 	sub	sp, sp, #20	; 0x14
a000a600:	e50b0010 	str	r0, [fp, #-16]
a000a604:	e50b1014 	str	r1, [fp, #-20]
a000a608:	e51b3010 	ldr	r3, [fp, #-16]
a000a60c:	e5933000 	ldr	r3, [r3]
a000a610:	e50b3018 	str	r3, [fp, #-24]
a000a614:	e51b3018 	ldr	r3, [fp, #-24]
a000a618:	e3530000 	cmp	r3, #0	; 0x0
a000a61c:	1a000002 	bne	a000a62c <strsep+0x3c>
a000a620:	e3a03000 	mov	r3, #0	; 0x0
a000a624:	e50b3020 	str	r3, [fp, #-32]
a000a628:	ea000013 	b	a000a67c <strsep+0x8c>
a000a62c:	e51b0018 	ldr	r0, [fp, #-24]
a000a630:	e51b1014 	ldr	r1, [fp, #-20]
a000a634:	ebffff82 	bl	a000a444 <strpbrk>
a000a638:	e1a03000 	mov	r3, r0
a000a63c:	e50b301c 	str	r3, [fp, #-28]
a000a640:	e51b301c 	ldr	r3, [fp, #-28]
a000a644:	e3530000 	cmp	r3, #0	; 0x0
a000a648:	0a000006 	beq	a000a668 <strsep+0x78>
a000a64c:	e24b001c 	sub	r0, fp, #28	; 0x1c
a000a650:	e5902000 	ldr	r2, [r0]
a000a654:	e1a01002 	mov	r1, r2
a000a658:	e3a03000 	mov	r3, #0	; 0x0
a000a65c:	e5c13000 	strb	r3, [r1]
a000a660:	e2822001 	add	r2, r2, #1	; 0x1
a000a664:	e5802000 	str	r2, [r0]
a000a668:	e51b3010 	ldr	r3, [fp, #-16]
a000a66c:	e51b201c 	ldr	r2, [fp, #-28]
a000a670:	e5832000 	str	r2, [r3]
a000a674:	e51b3018 	ldr	r3, [fp, #-24]
a000a678:	e50b3020 	str	r3, [fp, #-32]
a000a67c:	e51b0020 	ldr	r0, [fp, #-32]
a000a680:	e24bd00c 	sub	sp, fp, #12	; 0xc
a000a684:	e89da800 	ldmia	sp, {fp, sp, pc}

a000a688 <memset>:
a000a688:	e1a0c00d 	mov	ip, sp
a000a68c:	e92dd800 	stmdb	sp!, {fp, ip, lr, pc}
a000a690:	e24cb004 	sub	fp, ip, #4	; 0x4
a000a694:	e24dd010 	sub	sp, sp, #16	; 0x10
a000a698:	e50b0010 	str	r0, [fp, #-16]
a000a69c:	e50b1014 	str	r1, [fp, #-20]
a000a6a0:	e50b2018 	str	r2, [fp, #-24]
a000a6a4:	e51b3010 	ldr	r3, [fp, #-16]
a000a6a8:	e50b301c 	str	r3, [fp, #-28]
a000a6ac:	e51b3018 	ldr	r3, [fp, #-24]
a000a6b0:	e2433001 	sub	r3, r3, #1	; 0x1
a000a6b4:	e50b3018 	str	r3, [fp, #-24]
a000a6b8:	e3730001 	cmn	r3, #1	; 0x1
a000a6bc:	0a000008 	beq	a000a6e4 <memset+0x5c>
a000a6c0:	e24b001c 	sub	r0, fp, #28	; 0x1c
a000a6c4:	e5902000 	ldr	r2, [r0]
a000a6c8:	e51b3014 	ldr	r3, [fp, #-20]
a000a6cc:	e1a01003 	mov	r1, r3
a000a6d0:	e1a03002 	mov	r3, r2
a000a6d4:	e5c31000 	strb	r1, [r3]
a000a6d8:	e2822001 	add	r2, r2, #1	; 0x1
a000a6dc:	e5802000 	str	r2, [r0]
a000a6e0:	eafffff1 	b	a000a6ac <memset+0x24>
a000a6e4:	e51b3010 	ldr	r3, [fp, #-16]
a000a6e8:	e1a00003 	mov	r0, r3
a000a6ec:	e24bd00c 	sub	sp, fp, #12	; 0xc
a000a6f0:	e89da800 	ldmia	sp, {fp, sp, pc}

a000a6f4 <bcopy>:
a000a6f4:	e1a0c00d 	mov	ip, sp
a000a6f8:	e92dd800 	stmdb	sp!, {fp, ip, lr, pc}
a000a6fc:	e24cb004 	sub	fp, ip, #4	; 0x4
a000a700:	e24dd010 	sub	sp, sp, #16	; 0x10
a000a704:	e50b0010 	str	r0, [fp, #-16]
a000a708:	e50b1014 	str	r1, [fp, #-20]
a000a70c:	e50b2018 	str	r2, [fp, #-24]
a000a710:	e51b3014 	ldr	r3, [fp, #-20]
a000a714:	e50b301c 	str	r3, [fp, #-28]
a000a718:	e51b3018 	ldr	r3, [fp, #-24]
a000a71c:	e2433001 	sub	r3, r3, #1	; 0x1
a000a720:	e50b3018 	str	r3, [fp, #-24]
a000a724:	e3730001 	cmn	r3, #1	; 0x1
a000a728:	0a00000b 	beq	a000a75c <bcopy+0x68>
a000a72c:	e24bc01c 	sub	ip, fp, #28	; 0x1c
a000a730:	e59c2000 	ldr	r2, [ip]
a000a734:	e24b1010 	sub	r1, fp, #16	; 0x10
a000a738:	e5913000 	ldr	r3, [r1]
a000a73c:	e5d30000 	ldrb	r0, [r3]
a000a740:	e2833001 	add	r3, r3, #1	; 0x1
a000a744:	e5813000 	str	r3, [r1]
a000a748:	e1a03002 	mov	r3, r2
a000a74c:	e5c30000 	strb	r0, [r3]
a000a750:	e2822001 	add	r2, r2, #1	; 0x1
a000a754:	e58c2000 	str	r2, [ip]
a000a758:	eaffffee 	b	a000a718 <bcopy+0x24>
a000a75c:	e51b3014 	ldr	r3, [fp, #-20]
a000a760:	e1a00003 	mov	r0, r3
a000a764:	e24bd00c 	sub	sp, fp, #12	; 0xc
a000a768:	e89da800 	ldmia	sp, {fp, sp, pc}

a000a76c <memcpy>:
a000a76c:	e1a0c00d 	mov	ip, sp
a000a770:	e92dd800 	stmdb	sp!, {fp, ip, lr, pc}
a000a774:	e24cb004 	sub	fp, ip, #4	; 0x4
a000a778:	e24dd014 	sub	sp, sp, #20	; 0x14
a000a77c:	e50b0010 	str	r0, [fp, #-16]
a000a780:	e50b1014 	str	r1, [fp, #-20]
a000a784:	e50b2018 	str	r2, [fp, #-24]
a000a788:	e51b3010 	ldr	r3, [fp, #-16]
a000a78c:	e50b301c 	str	r3, [fp, #-28]
a000a790:	e51b3014 	ldr	r3, [fp, #-20]
a000a794:	e50b3020 	str	r3, [fp, #-32]
a000a798:	e51b3018 	ldr	r3, [fp, #-24]
a000a79c:	e2433001 	sub	r3, r3, #1	; 0x1
a000a7a0:	e50b3018 	str	r3, [fp, #-24]
a000a7a4:	e3730001 	cmn	r3, #1	; 0x1
a000a7a8:	0a00000b 	beq	a000a7dc <memcpy+0x70>
a000a7ac:	e24bc01c 	sub	ip, fp, #28	; 0x1c
a000a7b0:	e59c2000 	ldr	r2, [ip]
a000a7b4:	e24b1020 	sub	r1, fp, #32	; 0x20
a000a7b8:	e5913000 	ldr	r3, [r1]
a000a7bc:	e5d30000 	ldrb	r0, [r3]
a000a7c0:	e2833001 	add	r3, r3, #1	; 0x1
a000a7c4:	e5813000 	str	r3, [r1]
a000a7c8:	e1a03002 	mov	r3, r2
a000a7cc:	e5c30000 	strb	r0, [r3]
a000a7d0:	e2822001 	add	r2, r2, #1	; 0x1
a000a7d4:	e58c2000 	str	r2, [ip]
a000a7d8:	eaffffee 	b	a000a798 <memcpy+0x2c>
a000a7dc:	e51b3010 	ldr	r3, [fp, #-16]
a000a7e0:	e1a00003 	mov	r0, r3
a000a7e4:	e24bd00c 	sub	sp, fp, #12	; 0xc
a000a7e8:	e89da800 	ldmia	sp, {fp, sp, pc}

a000a7ec <memmove>:
a000a7ec:	e1a0c00d 	mov	ip, sp
a000a7f0:	e92dd800 	stmdb	sp!, {fp, ip, lr, pc}
a000a7f4:	e24cb004 	sub	fp, ip, #4	; 0x4
a000a7f8:	e24dd014 	sub	sp, sp, #20	; 0x14
a000a7fc:	e50b0010 	str	r0, [fp, #-16]
a000a800:	e50b1014 	str	r1, [fp, #-20]
a000a804:	e50b2018 	str	r2, [fp, #-24]
a000a808:	e51b2010 	ldr	r2, [fp, #-16]
a000a80c:	e51b3014 	ldr	r3, [fp, #-20]
a000a810:	e1520003 	cmp	r2, r3
a000a814:	8a000014 	bhi	a000a86c <memmove+0x80>
a000a818:	e51b3010 	ldr	r3, [fp, #-16]
a000a81c:	e50b301c 	str	r3, [fp, #-28]
a000a820:	e51b3014 	ldr	r3, [fp, #-20]
a000a824:	e50b3020 	str	r3, [fp, #-32]
a000a828:	e51b3018 	ldr	r3, [fp, #-24]
a000a82c:	e2433001 	sub	r3, r3, #1	; 0x1
a000a830:	e50b3018 	str	r3, [fp, #-24]
a000a834:	e3730001 	cmn	r3, #1	; 0x1
a000a838:	0a000022 	beq	a000a8c8 <memmove+0xdc>
a000a83c:	e24bc01c 	sub	ip, fp, #28	; 0x1c
a000a840:	e59c2000 	ldr	r2, [ip]
a000a844:	e24b1020 	sub	r1, fp, #32	; 0x20
a000a848:	e5913000 	ldr	r3, [r1]
a000a84c:	e5d30000 	ldrb	r0, [r3]
a000a850:	e2833001 	add	r3, r3, #1	; 0x1
a000a854:	e5813000 	str	r3, [r1]
a000a858:	e1a03002 	mov	r3, r2
a000a85c:	e5c30000 	strb	r0, [r3]
a000a860:	e2822001 	add	r2, r2, #1	; 0x1
a000a864:	e58c2000 	str	r2, [ip]
a000a868:	eaffffee 	b	a000a828 <memmove+0x3c>
a000a86c:	e51b2010 	ldr	r2, [fp, #-16]
a000a870:	e51b3018 	ldr	r3, [fp, #-24]
a000a874:	e0823003 	add	r3, r2, r3
a000a878:	e50b301c 	str	r3, [fp, #-28]
a000a87c:	e51b2014 	ldr	r2, [fp, #-20]
a000a880:	e51b3018 	ldr	r3, [fp, #-24]
a000a884:	e0823003 	add	r3, r2, r3
a000a888:	e50b3020 	str	r3, [fp, #-32]
a000a88c:	e51b3018 	ldr	r3, [fp, #-24]
a000a890:	e2433001 	sub	r3, r3, #1	; 0x1
a000a894:	e50b3018 	str	r3, [fp, #-24]
a000a898:	e3730001 	cmn	r3, #1	; 0x1
a000a89c:	0a000009 	beq	a000a8c8 <memmove+0xdc>
a000a8a0:	e51b301c 	ldr	r3, [fp, #-28]
a000a8a4:	e2433001 	sub	r3, r3, #1	; 0x1
a000a8a8:	e1a02003 	mov	r2, r3
a000a8ac:	e50b201c 	str	r2, [fp, #-28]
a000a8b0:	e51b3020 	ldr	r3, [fp, #-32]
a000a8b4:	e2433001 	sub	r3, r3, #1	; 0x1
a000a8b8:	e50b3020 	str	r3, [fp, #-32]
a000a8bc:	e5d33000 	ldrb	r3, [r3]
a000a8c0:	e5c23000 	strb	r3, [r2]
a000a8c4:	eafffff0 	b	a000a88c <memmove+0xa0>
a000a8c8:	e51b3010 	ldr	r3, [fp, #-16]
a000a8cc:	e1a00003 	mov	r0, r3
a000a8d0:	e24bd00c 	sub	sp, fp, #12	; 0xc
a000a8d4:	e89da800 	ldmia	sp, {fp, sp, pc}

a000a8d8 <memcmp>:
a000a8d8:	e1a0c00d 	mov	ip, sp
a000a8dc:	e92dd800 	stmdb	sp!, {fp, ip, lr, pc}
a000a8e0:	e24cb004 	sub	fp, ip, #4	; 0x4
a000a8e4:	e24dd018 	sub	sp, sp, #24	; 0x18
a000a8e8:	e50b0010 	str	r0, [fp, #-16]
a000a8ec:	e50b1014 	str	r1, [fp, #-20]
a000a8f0:	e50b2018 	str	r2, [fp, #-24]
a000a8f4:	e3a03000 	mov	r3, #0	; 0x0
a000a8f8:	e54b3021 	strb	r3, [fp, #-33]
a000a8fc:	e51b3010 	ldr	r3, [fp, #-16]
a000a900:	e50b301c 	str	r3, [fp, #-28]
a000a904:	e51b3014 	ldr	r3, [fp, #-20]
a000a908:	e50b3020 	str	r3, [fp, #-32]
a000a90c:	e51b3018 	ldr	r3, [fp, #-24]
a000a910:	e3530000 	cmp	r3, #0	; 0x0
a000a914:	0a000014 	beq	a000a96c <memcmp+0x94>
a000a918:	e51b301c 	ldr	r3, [fp, #-28]
a000a91c:	e51b2020 	ldr	r2, [fp, #-32]
a000a920:	e5d31000 	ldrb	r1, [r3]
a000a924:	e5d23000 	ldrb	r3, [r2]
a000a928:	e0633001 	rsb	r3, r3, r1
a000a92c:	e54b3021 	strb	r3, [fp, #-33]
a000a930:	e1a03c03 	mov	r3, r3, lsl #24
a000a934:	e1a03c43 	mov	r3, r3, asr #24
a000a938:	e3530000 	cmp	r3, #0	; 0x0
a000a93c:	0a000000 	beq	a000a944 <memcmp+0x6c>
a000a940:	ea000009 	b	a000a96c <memcmp+0x94>
a000a944:	e51b301c 	ldr	r3, [fp, #-28]
a000a948:	e2833001 	add	r3, r3, #1	; 0x1
a000a94c:	e50b301c 	str	r3, [fp, #-28]
a000a950:	e51b3020 	ldr	r3, [fp, #-32]
a000a954:	e2833001 	add	r3, r3, #1	; 0x1
a000a958:	e50b3020 	str	r3, [fp, #-32]
a000a95c:	e51b3018 	ldr	r3, [fp, #-24]
a000a960:	e2433001 	sub	r3, r3, #1	; 0x1
a000a964:	e50b3018 	str	r3, [fp, #-24]
a000a968:	eaffffe7 	b	a000a90c <memcmp+0x34>
a000a96c:	e15b32d1 	ldrsb	r3, [fp, #-33]
a000a970:	e1a00003 	mov	r0, r3
a000a974:	e24bd00c 	sub	sp, fp, #12	; 0xc
a000a978:	e89da800 	ldmia	sp, {fp, sp, pc}

a000a97c <memscan>:
a000a97c:	e1a0c00d 	mov	ip, sp
a000a980:	e92dd800 	stmdb	sp!, {fp, ip, lr, pc}
a000a984:	e24cb004 	sub	fp, ip, #4	; 0x4
a000a988:	e24dd014 	sub	sp, sp, #20	; 0x14
a000a98c:	e50b0010 	str	r0, [fp, #-16]
a000a990:	e50b1014 	str	r1, [fp, #-20]
a000a994:	e50b2018 	str	r2, [fp, #-24]
a000a998:	e51b3010 	ldr	r3, [fp, #-16]
a000a99c:	e50b301c 	str	r3, [fp, #-28]
a000a9a0:	e51b3018 	ldr	r3, [fp, #-24]
a000a9a4:	e3530000 	cmp	r3, #0	; 0x0
a000a9a8:	0a00000e 	beq	a000a9e8 <memscan+0x6c>
a000a9ac:	e51b301c 	ldr	r3, [fp, #-28]
a000a9b0:	e5d32000 	ldrb	r2, [r3]
a000a9b4:	e51b3014 	ldr	r3, [fp, #-20]
a000a9b8:	e1520003 	cmp	r2, r3
a000a9bc:	1a000002 	bne	a000a9cc <memscan+0x50>
a000a9c0:	e51b301c 	ldr	r3, [fp, #-28]
a000a9c4:	e50b3020 	str	r3, [fp, #-32]
a000a9c8:	ea000008 	b	a000a9f0 <memscan+0x74>
a000a9cc:	e51b301c 	ldr	r3, [fp, #-28]
a000a9d0:	e2833001 	add	r3, r3, #1	; 0x1
a000a9d4:	e50b301c 	str	r3, [fp, #-28]
a000a9d8:	e51b3018 	ldr	r3, [fp, #-24]
a000a9dc:	e2433001 	sub	r3, r3, #1	; 0x1
a000a9e0:	e50b3018 	str	r3, [fp, #-24]
a000a9e4:	eaffffed 	b	a000a9a0 <memscan+0x24>
a000a9e8:	e51b301c 	ldr	r3, [fp, #-28]
a000a9ec:	e50b3020 	str	r3, [fp, #-32]
a000a9f0:	e51b0020 	ldr	r0, [fp, #-32]
a000a9f4:	e24bd00c 	sub	sp, fp, #12	; 0xc
a000a9f8:	e89da800 	ldmia	sp, {fp, sp, pc}

a000a9fc <strstr>:
a000a9fc:	e1a0c00d 	mov	ip, sp
a000aa00:	e92dd800 	stmdb	sp!, {fp, ip, lr, pc}
a000aa04:	e24cb004 	sub	fp, ip, #4	; 0x4
a000aa08:	e24dd014 	sub	sp, sp, #20	; 0x14
a000aa0c:	e50b0010 	str	r0, [fp, #-16]
a000aa10:	e50b1014 	str	r1, [fp, #-20]
a000aa14:	e51b0014 	ldr	r0, [fp, #-20]
a000aa18:	ebfffe05 	bl	a000a234 <strlen>
a000aa1c:	e50b001c 	str	r0, [fp, #-28]
a000aa20:	e51b301c 	ldr	r3, [fp, #-28]
a000aa24:	e3530000 	cmp	r3, #0	; 0x0
a000aa28:	1a000002 	bne	a000aa38 <strstr+0x3c>
a000aa2c:	e51b3010 	ldr	r3, [fp, #-16]
a000aa30:	e50b3020 	str	r3, [fp, #-32]
a000aa34:	ea000019 	b	a000aaa0 <strstr+0xa4>
a000aa38:	e51b0010 	ldr	r0, [fp, #-16]
a000aa3c:	ebfffdfc 	bl	a000a234 <strlen>
a000aa40:	e50b0018 	str	r0, [fp, #-24]
a000aa44:	e51b2018 	ldr	r2, [fp, #-24]
a000aa48:	e51b301c 	ldr	r3, [fp, #-28]
a000aa4c:	e1520003 	cmp	r2, r3
a000aa50:	ba000010 	blt	a000aa98 <strstr+0x9c>
a000aa54:	e51b3018 	ldr	r3, [fp, #-24]
a000aa58:	e2433001 	sub	r3, r3, #1	; 0x1
a000aa5c:	e50b3018 	str	r3, [fp, #-24]
a000aa60:	e51b0010 	ldr	r0, [fp, #-16]
a000aa64:	e51b1014 	ldr	r1, [fp, #-20]
a000aa68:	e51b201c 	ldr	r2, [fp, #-28]
a000aa6c:	ebffff99 	bl	a000a8d8 <memcmp>
a000aa70:	e1a03000 	mov	r3, r0
a000aa74:	e3530000 	cmp	r3, #0	; 0x0
a000aa78:	1a000002 	bne	a000aa88 <strstr+0x8c>
a000aa7c:	e51b3010 	ldr	r3, [fp, #-16]
a000aa80:	e50b3020 	str	r3, [fp, #-32]
a000aa84:	ea000005 	b	a000aaa0 <strstr+0xa4>
a000aa88:	e51b3010 	ldr	r3, [fp, #-16]
a000aa8c:	e2833001 	add	r3, r3, #1	; 0x1
a000aa90:	e50b3010 	str	r3, [fp, #-16]
a000aa94:	eaffffea 	b	a000aa44 <strstr+0x48>
a000aa98:	e3a03000 	mov	r3, #0	; 0x0
a000aa9c:	e50b3020 	str	r3, [fp, #-32]
a000aaa0:	e51b0020 	ldr	r0, [fp, #-32]
a000aaa4:	e24bd00c 	sub	sp, fp, #12	; 0xc
a000aaa8:	e89da800 	ldmia	sp, {fp, sp, pc}

a000aaac <memchr>:
a000aaac:	e1a0c00d 	mov	ip, sp
a000aab0:	e92dd800 	stmdb	sp!, {fp, ip, lr, pc}
a000aab4:	e24cb004 	sub	fp, ip, #4	; 0x4
a000aab8:	e24dd014 	sub	sp, sp, #20	; 0x14
a000aabc:	e50b0010 	str	r0, [fp, #-16]
a000aac0:	e50b1014 	str	r1, [fp, #-20]
a000aac4:	e50b2018 	str	r2, [fp, #-24]
a000aac8:	e51b3010 	ldr	r3, [fp, #-16]
a000aacc:	e50b301c 	str	r3, [fp, #-28]
a000aad0:	e51b3018 	ldr	r3, [fp, #-24]
a000aad4:	e2433001 	sub	r3, r3, #1	; 0x1
a000aad8:	e50b3018 	str	r3, [fp, #-24]
a000aadc:	e3730001 	cmn	r3, #1	; 0x1
a000aae0:	0a00000d 	beq	a000ab1c <memchr+0x70>
a000aae4:	e51b0014 	ldr	r0, [fp, #-20]
a000aae8:	e24b201c 	sub	r2, fp, #28	; 0x1c
a000aaec:	e5923000 	ldr	r3, [r2]
a000aaf0:	e5d31000 	ldrb	r1, [r3]
a000aaf4:	e2833001 	add	r3, r3, #1	; 0x1
a000aaf8:	e5823000 	str	r3, [r2]
a000aafc:	e20120ff 	and	r2, r1, #255	; 0xff
a000ab00:	e20030ff 	and	r3, r0, #255	; 0xff
a000ab04:	e1520003 	cmp	r2, r3
a000ab08:	1afffff0 	bne	a000aad0 <memchr+0x24>
a000ab0c:	e51b301c 	ldr	r3, [fp, #-28]
a000ab10:	e2433001 	sub	r3, r3, #1	; 0x1
a000ab14:	e50b3020 	str	r3, [fp, #-32]
a000ab18:	ea000001 	b	a000ab24 <memchr+0x78>
a000ab1c:	e3a03000 	mov	r3, #0	; 0x0
a000ab20:	e50b3020 	str	r3, [fp, #-32]
a000ab24:	e51b0020 	ldr	r0, [fp, #-32]
a000ab28:	e24bd00c 	sub	sp, fp, #12	; 0xc
a000ab2c:	e89da800 	ldmia	sp, {fp, sp, pc}

a000ab30 <UpperStr>:
a000ab30:	e1a0c00d 	mov	ip, sp
a000ab34:	e92dd810 	stmdb	sp!, {r4, fp, ip, lr, pc}
a000ab38:	e24cb004 	sub	fp, ip, #4	; 0x4
a000ab3c:	e24dd004 	sub	sp, sp, #4	; 0x4
a000ab40:	e50b0014 	str	r0, [fp, #-20]
a000ab44:	e51b3014 	ldr	r3, [fp, #-20]
a000ab48:	e5d33000 	ldrb	r3, [r3]
a000ab4c:	e3530000 	cmp	r3, #0	; 0x0
a000ab50:	0a000009 	beq	a000ab7c <UpperStr+0x4c>
a000ab54:	e51b4014 	ldr	r4, [fp, #-20]
a000ab58:	e51b3014 	ldr	r3, [fp, #-20]
a000ab5c:	e5d33000 	ldrb	r3, [r3]
a000ab60:	e1a00003 	mov	r0, r3
a000ab64:	eb000005 	bl	a000ab80 <__toupper>
a000ab68:	e5c40000 	strb	r0, [r4]
a000ab6c:	e51b3014 	ldr	r3, [fp, #-20]
a000ab70:	e2833001 	add	r3, r3, #1	; 0x1
a000ab74:	e50b3014 	str	r3, [fp, #-20]
a000ab78:	eafffff1 	b	a000ab44 <UpperStr+0x14>
a000ab7c:	e99da810 	ldmib	sp, {r4, fp, sp, pc}

a000ab80 <__toupper>:
a000ab80:	e1a0c00d 	mov	ip, sp
a000ab84:	e92dd800 	stmdb	sp!, {fp, ip, lr, pc}
a000ab88:	e24cb004 	sub	fp, ip, #4	; 0x4
a000ab8c:	e24dd004 	sub	sp, sp, #4	; 0x4
a000ab90:	e1a03000 	mov	r3, r0
a000ab94:	e54b300d 	strb	r3, [fp, #-13]
a000ab98:	e59f202c 	ldr	r2, [pc, #44]	; a000abcc <.text+0x2bcc>
a000ab9c:	e55b300d 	ldrb	r3, [fp, #-13]
a000aba0:	e7d23003 	ldrb	r3, [r2, r3]
a000aba4:	e1a030a3 	mov	r3, r3, lsr #1
a000aba8:	e2033001 	and	r3, r3, #1	; 0x1
a000abac:	e3530000 	cmp	r3, #0	; 0x0
a000abb0:	0a000002 	beq	a000abc0 <__toupper+0x40>
a000abb4:	e55b300d 	ldrb	r3, [fp, #-13]
a000abb8:	e2433020 	sub	r3, r3, #32	; 0x20
a000abbc:	e54b300d 	strb	r3, [fp, #-13]
a000abc0:	e55b300d 	ldrb	r3, [fp, #-13]
a000abc4:	e1a00003 	mov	r0, r3
a000abc8:	e99da800 	ldmib	sp, {fp, sp, pc}
a000abcc:	a000bf58 	andge	fp, r0, r8, asr pc

a000abd0 <LowerStr>:
a000abd0:	e1a0c00d 	mov	ip, sp
a000abd4:	e92dd810 	stmdb	sp!, {r4, fp, ip, lr, pc}
a000abd8:	e24cb004 	sub	fp, ip, #4	; 0x4
a000abdc:	e24dd004 	sub	sp, sp, #4	; 0x4
a000abe0:	e50b0014 	str	r0, [fp, #-20]
a000abe4:	e51b3014 	ldr	r3, [fp, #-20]
a000abe8:	e5d33000 	ldrb	r3, [r3]
a000abec:	e3530000 	cmp	r3, #0	; 0x0
a000abf0:	0a000009 	beq	a000ac1c <LowerStr+0x4c>
a000abf4:	e51b4014 	ldr	r4, [fp, #-20]
a000abf8:	e51b3014 	ldr	r3, [fp, #-20]
a000abfc:	e5d33000 	ldrb	r3, [r3]
a000ac00:	e1a00003 	mov	r0, r3
a000ac04:	ebfffc7d 	bl	a0009e00 <__tolower>
a000ac08:	e5c40000 	strb	r0, [r4]
a000ac0c:	e51b3014 	ldr	r3, [fp, #-20]
a000ac10:	e2833001 	add	r3, r3, #1	; 0x1
a000ac14:	e50b3014 	str	r3, [fp, #-20]
a000ac18:	eafffff1 	b	a000abe4 <LowerStr+0x14>
a000ac1c:	e99da810 	ldmib	sp, {r4, fp, sp, pc}

a000ac20 <strtoul>:
a000ac20:	e1a0c00d 	mov	ip, sp
a000ac24:	e92dd800 	stmdb	sp!, {fp, ip, lr, pc}
a000ac28:	e24cb004 	sub	fp, ip, #4	; 0x4
a000ac2c:	e24dd014 	sub	sp, sp, #20	; 0x14
a000ac30:	e50b0010 	str	r0, [fp, #-16]
a000ac34:	e50b1014 	str	r1, [fp, #-20]
a000ac38:	e50b2018 	str	r2, [fp, #-24]
a000ac3c:	e3a03000 	mov	r3, #0	; 0x0
a000ac40:	e50b301c 	str	r3, [fp, #-28]
a000ac44:	e59f21ec 	ldr	r2, [pc, #492]	; a000ae38 <.text+0x2e38>
a000ac48:	e51b3010 	ldr	r3, [fp, #-16]
a000ac4c:	e5d33000 	ldrb	r3, [r3]
a000ac50:	e7d23003 	ldrb	r3, [r2, r3]
a000ac54:	e1a032a3 	mov	r3, r3, lsr #5
a000ac58:	e2033001 	and	r3, r3, #1	; 0x1
a000ac5c:	e3530000 	cmp	r3, #0	; 0x0
a000ac60:	0a000003 	beq	a000ac74 <strtoul+0x54>
a000ac64:	e51b3010 	ldr	r3, [fp, #-16]
a000ac68:	e2833001 	add	r3, r3, #1	; 0x1
a000ac6c:	e50b3010 	str	r3, [fp, #-16]
a000ac70:	eafffff3 	b	a000ac44 <strtoul+0x24>
a000ac74:	e51b3018 	ldr	r3, [fp, #-24]
a000ac78:	e3530010 	cmp	r3, #16	; 0x10
a000ac7c:	0a000002 	beq	a000ac8c <strtoul+0x6c>
a000ac80:	e51b3018 	ldr	r3, [fp, #-24]
a000ac84:	e3530000 	cmp	r3, #0	; 0x0
a000ac88:	1a000015 	bne	a000ace4 <strtoul+0xc4>
a000ac8c:	e51b3010 	ldr	r3, [fp, #-16]
a000ac90:	e5d33000 	ldrb	r3, [r3]
a000ac94:	e3530030 	cmp	r3, #48	; 0x30
a000ac98:	1a000011 	bne	a000ace4 <strtoul+0xc4>
a000ac9c:	e3a02001 	mov	r2, #1	; 0x1
a000aca0:	e51b3010 	ldr	r3, [fp, #-16]
a000aca4:	e0823003 	add	r3, r2, r3
a000aca8:	e5d33000 	ldrb	r3, [r3]
a000acac:	e3530078 	cmp	r3, #120	; 0x78
a000acb0:	0a000006 	beq	a000acd0 <strtoul+0xb0>
a000acb4:	e3a02001 	mov	r2, #1	; 0x1
a000acb8:	e51b3010 	ldr	r3, [fp, #-16]
a000acbc:	e0823003 	add	r3, r2, r3
a000acc0:	e5d33000 	ldrb	r3, [r3]
a000acc4:	e3530058 	cmp	r3, #88	; 0x58
a000acc8:	0a000000 	beq	a000acd0 <strtoul+0xb0>
a000accc:	ea000004 	b	a000ace4 <strtoul+0xc4>
a000acd0:	e51b3010 	ldr	r3, [fp, #-16]
a000acd4:	e2833002 	add	r3, r3, #2	; 0x2
a000acd8:	e50b3010 	str	r3, [fp, #-16]
a000acdc:	e3a03010 	mov	r3, #16	; 0x10
a000ace0:	e50b3018 	str	r3, [fp, #-24]
a000ace4:	e51b3018 	ldr	r3, [fp, #-24]
a000ace8:	e3530000 	cmp	r3, #0	; 0x0
a000acec:	1a000008 	bne	a000ad14 <strtoul+0xf4>
a000acf0:	e51b3010 	ldr	r3, [fp, #-16]
a000acf4:	e5d33000 	ldrb	r3, [r3]
a000acf8:	e3530030 	cmp	r3, #48	; 0x30
a000acfc:	1a000002 	bne	a000ad0c <strtoul+0xec>
a000ad00:	e3a03008 	mov	r3, #8	; 0x8
a000ad04:	e50b3018 	str	r3, [fp, #-24]
a000ad08:	ea000001 	b	a000ad14 <strtoul+0xf4>
a000ad0c:	e3a0300a 	mov	r3, #10	; 0xa
a000ad10:	e50b3018 	str	r3, [fp, #-24]
a000ad14:	e51b3010 	ldr	r3, [fp, #-16]
a000ad18:	e5d33000 	ldrb	r3, [r3]
a000ad1c:	e54b301d 	strb	r3, [fp, #-29]
a000ad20:	e55b301d 	ldrb	r3, [fp, #-29]
a000ad24:	e353002f 	cmp	r3, #47	; 0x2f
a000ad28:	9a00000f 	bls	a000ad6c <strtoul+0x14c>
a000ad2c:	e55b301d 	ldrb	r3, [fp, #-29]
a000ad30:	e3530039 	cmp	r3, #57	; 0x39
a000ad34:	8a00000c 	bhi	a000ad6c <strtoul+0x14c>
a000ad38:	e55b301d 	ldrb	r3, [fp, #-29]
a000ad3c:	e2432030 	sub	r2, r3, #48	; 0x30
a000ad40:	e51b3018 	ldr	r3, [fp, #-24]
a000ad44:	e1520003 	cmp	r2, r3
a000ad48:	aa000007 	bge	a000ad6c <strtoul+0x14c>
a000ad4c:	e51b201c 	ldr	r2, [fp, #-28]
a000ad50:	e51b3018 	ldr	r3, [fp, #-24]
a000ad54:	e0020293 	mul	r2, r3, r2
a000ad58:	e55b301d 	ldrb	r3, [fp, #-29]
a000ad5c:	e0823003 	add	r3, r2, r3
a000ad60:	e2433030 	sub	r3, r3, #48	; 0x30
a000ad64:	e50b301c 	str	r3, [fp, #-28]
a000ad68:	ea000024 	b	a000ae00 <strtoul+0x1e0>
a000ad6c:	e55b301d 	ldrb	r3, [fp, #-29]
a000ad70:	e3530060 	cmp	r3, #96	; 0x60
a000ad74:	9a00000f 	bls	a000adb8 <strtoul+0x198>
a000ad78:	e55b301d 	ldrb	r3, [fp, #-29]
a000ad7c:	e353007a 	cmp	r3, #122	; 0x7a
a000ad80:	8a00000c 	bhi	a000adb8 <strtoul+0x198>
a000ad84:	e55b301d 	ldrb	r3, [fp, #-29]
a000ad88:	e2432057 	sub	r2, r3, #87	; 0x57
a000ad8c:	e51b3018 	ldr	r3, [fp, #-24]
a000ad90:	e1520003 	cmp	r2, r3
a000ad94:	aa000007 	bge	a000adb8 <strtoul+0x198>
a000ad98:	e51b201c 	ldr	r2, [fp, #-28]
a000ad9c:	e51b3018 	ldr	r3, [fp, #-24]
a000ada0:	e0020293 	mul	r2, r3, r2
a000ada4:	e55b301d 	ldrb	r3, [fp, #-29]
a000ada8:	e0823003 	add	r3, r2, r3
a000adac:	e2433057 	sub	r3, r3, #87	; 0x57
a000adb0:	e50b301c 	str	r3, [fp, #-28]
a000adb4:	ea000011 	b	a000ae00 <strtoul+0x1e0>
a000adb8:	e55b301d 	ldrb	r3, [fp, #-29]
a000adbc:	e3530040 	cmp	r3, #64	; 0x40
a000adc0:	9a000012 	bls	a000ae10 <strtoul+0x1f0>
a000adc4:	e55b301d 	ldrb	r3, [fp, #-29]
a000adc8:	e353005a 	cmp	r3, #90	; 0x5a
a000adcc:	8a00000f 	bhi	a000ae10 <strtoul+0x1f0>
a000add0:	e55b301d 	ldrb	r3, [fp, #-29]
a000add4:	e2432037 	sub	r2, r3, #55	; 0x37
a000add8:	e51b3018 	ldr	r3, [fp, #-24]
a000addc:	e1520003 	cmp	r2, r3
a000ade0:	aa00000a 	bge	a000ae10 <strtoul+0x1f0>
a000ade4:	e51b201c 	ldr	r2, [fp, #-28]
a000ade8:	e51b3018 	ldr	r3, [fp, #-24]
a000adec:	e0020293 	mul	r2, r3, r2
a000adf0:	e55b301d 	ldrb	r3, [fp, #-29]
a000adf4:	e0823003 	add	r3, r2, r3
a000adf8:	e2433037 	sub	r3, r3, #55	; 0x37
a000adfc:	e50b301c 	str	r3, [fp, #-28]
a000ae00:	e51b3010 	ldr	r3, [fp, #-16]
a000ae04:	e2833001 	add	r3, r3, #1	; 0x1
a000ae08:	e50b3010 	str	r3, [fp, #-16]
a000ae0c:	eaffffc0 	b	a000ad14 <strtoul+0xf4>
a000ae10:	e51b3014 	ldr	r3, [fp, #-20]
a000ae14:	e3530000 	cmp	r3, #0	; 0x0
a000ae18:	0a000002 	beq	a000ae28 <strtoul+0x208>
a000ae1c:	e51b2014 	ldr	r2, [fp, #-20]
a000ae20:	e51b3010 	ldr	r3, [fp, #-16]
a000ae24:	e5823000 	str	r3, [r2]
a000ae28:	e51b301c 	ldr	r3, [fp, #-28]
a000ae2c:	e1a00003 	mov	r0, r3
a000ae30:	e24bd00c 	sub	sp, fp, #12	; 0xc
a000ae34:	e89da800 	ldmia	sp, {fp, sp, pc}
a000ae38:	a000bf58 	andge	fp, r0, r8, asr pc

a000ae3c <SerialOutChar>:
a000ae3c:	e1a0c00d 	mov	ip, sp
a000ae40:	e92dd800 	stmdb	sp!, {fp, ip, lr, pc}
a000ae44:	e24cb004 	sub	fp, ip, #4	; 0x4
a000ae48:	e24dd004 	sub	sp, sp, #4	; 0x4
a000ae4c:	e1a03000 	mov	r3, r0
a000ae50:	e54b300d 	strb	r3, [fp, #-13]
a000ae54:	e3a02014 	mov	r2, #20	; 0x14
a000ae58:	e59f3034 	ldr	r3, [pc, #52]	; a000ae94 <.text+0x2e94>
a000ae5c:	e5933000 	ldr	r3, [r3]
a000ae60:	e0823003 	add	r3, r2, r3
a000ae64:	e5933000 	ldr	r3, [r3]
a000ae68:	e1a032a3 	mov	r3, r3, lsr #5
a000ae6c:	e2233001 	eor	r3, r3, #1	; 0x1
a000ae70:	e2033001 	and	r3, r3, #1	; 0x1
a000ae74:	e3530000 	cmp	r3, #0	; 0x0
a000ae78:	0a000000 	beq	a000ae80 <SerialOutChar+0x44>
a000ae7c:	eafffff4 	b	a000ae54 <SerialOutChar+0x18>
a000ae80:	e59f300c 	ldr	r3, [pc, #12]	; a000ae94 <.text+0x2e94>
a000ae84:	e5932000 	ldr	r2, [r3]
a000ae88:	e55b300d 	ldrb	r3, [fp, #-13]
a000ae8c:	e5823000 	str	r3, [r2]
a000ae90:	e99da800 	ldmib	sp, {fp, sp, pc}
a000ae94:	a000c058 	andge	ip, r0, r8, asr r0

a000ae98 <SerialOutChar_CheckCR>:
a000ae98:	e1a0c00d 	mov	ip, sp
a000ae9c:	e92dd800 	stmdb	sp!, {fp, ip, lr, pc}
a000aea0:	e24cb004 	sub	fp, ip, #4	; 0x4
a000aea4:	e24dd004 	sub	sp, sp, #4	; 0x4
a000aea8:	e1a03000 	mov	r3, r0
a000aeac:	e54b300d 	strb	r3, [fp, #-13]
a000aeb0:	e55b300d 	ldrb	r3, [fp, #-13]
a000aeb4:	e1a00003 	mov	r0, r3
a000aeb8:	ebffffdf 	bl	a000ae3c <SerialOutChar>
a000aebc:	e55b300d 	ldrb	r3, [fp, #-13]
a000aec0:	e353000a 	cmp	r3, #10	; 0xa
a000aec4:	1a000001 	bne	a000aed0 <SerialOutChar_CheckCR+0x38>
a000aec8:	e3a0000d 	mov	r0, #13	; 0xd
a000aecc:	ebffffda 	bl	a000ae3c <SerialOutChar>
a000aed0:	e99da800 	ldmib	sp, {fp, sp, pc}

a000aed4 <SerialOutStr>:
a000aed4:	e1a0c00d 	mov	ip, sp
a000aed8:	e92dd800 	stmdb	sp!, {fp, ip, lr, pc}
a000aedc:	e24cb004 	sub	fp, ip, #4	; 0x4
a000aee0:	e24dd00c 	sub	sp, sp, #12	; 0xc
a000aee4:	e50b0010 	str	r0, [fp, #-16]
a000aee8:	e50b1014 	str	r1, [fp, #-20]
a000aeec:	e3a03000 	mov	r3, #0	; 0x0
a000aef0:	e50b3018 	str	r3, [fp, #-24]
a000aef4:	e51b2018 	ldr	r2, [fp, #-24]
a000aef8:	e51b3014 	ldr	r3, [fp, #-20]
a000aefc:	e1520003 	cmp	r2, r3
a000af00:	aa000009 	bge	a000af2c <SerialOutStr+0x58>
a000af04:	e51b2010 	ldr	r2, [fp, #-16]
a000af08:	e51b3018 	ldr	r3, [fp, #-24]
a000af0c:	e0823003 	add	r3, r2, r3
a000af10:	e5d33000 	ldrb	r3, [r3]
a000af14:	e1a00003 	mov	r0, r3
a000af18:	ebffffc7 	bl	a000ae3c <SerialOutChar>
a000af1c:	e51b3018 	ldr	r3, [fp, #-24]
a000af20:	e2833001 	add	r3, r3, #1	; 0x1
a000af24:	e50b3018 	str	r3, [fp, #-24]
a000af28:	eafffff1 	b	a000aef4 <SerialOutStr+0x20>
a000af2c:	e51b3018 	ldr	r3, [fp, #-24]
a000af30:	e1a00003 	mov	r0, r3
a000af34:	e24bd00c 	sub	sp, fp, #12	; 0xc
a000af38:	e89da800 	ldmia	sp, {fp, sp, pc}

a000af3c <SerialOutStr_CheckCR>:
a000af3c:	e1a0c00d 	mov	ip, sp
a000af40:	e92dd800 	stmdb	sp!, {fp, ip, lr, pc}
a000af44:	e24cb004 	sub	fp, ip, #4	; 0x4
a000af48:	e24dd00c 	sub	sp, sp, #12	; 0xc
a000af4c:	e50b0010 	str	r0, [fp, #-16]
a000af50:	e50b1014 	str	r1, [fp, #-20]
a000af54:	e3a03000 	mov	r3, #0	; 0x0
a000af58:	e50b3018 	str	r3, [fp, #-24]
a000af5c:	e51b2018 	ldr	r2, [fp, #-24]
a000af60:	e51b3014 	ldr	r3, [fp, #-20]
a000af64:	e1520003 	cmp	r2, r3
a000af68:	aa000009 	bge	a000af94 <SerialOutStr_CheckCR+0x58>
a000af6c:	e51b2010 	ldr	r2, [fp, #-16]
a000af70:	e51b3018 	ldr	r3, [fp, #-24]
a000af74:	e0823003 	add	r3, r2, r3
a000af78:	e5d33000 	ldrb	r3, [r3]
a000af7c:	e1a00003 	mov	r0, r3
a000af80:	ebffffc4 	bl	a000ae98 <SerialOutChar_CheckCR>
a000af84:	e51b3018 	ldr	r3, [fp, #-24]
a000af88:	e2833001 	add	r3, r3, #1	; 0x1
a000af8c:	e50b3018 	str	r3, [fp, #-24]
a000af90:	eafffff1 	b	a000af5c <SerialOutStr_CheckCR+0x20>
a000af94:	e51b3018 	ldr	r3, [fp, #-24]
a000af98:	e1a00003 	mov	r0, r3
a000af9c:	e24bd00c 	sub	sp, fp, #12	; 0xc
a000afa0:	e89da800 	ldmia	sp, {fp, sp, pc}

a000afa4 <SerialIsReadyChar>:
a000afa4:	e1a0c00d 	mov	ip, sp
a000afa8:	e92dd800 	stmdb	sp!, {fp, ip, lr, pc}
a000afac:	e24cb004 	sub	fp, ip, #4	; 0x4
a000afb0:	e24dd004 	sub	sp, sp, #4	; 0x4
a000afb4:	e3a02014 	mov	r2, #20	; 0x14
a000afb8:	e59f3030 	ldr	r3, [pc, #48]	; a000aff0 <.text+0x2ff0>
a000afbc:	e5933000 	ldr	r3, [r3]
a000afc0:	e0823003 	add	r3, r2, r3
a000afc4:	e5933000 	ldr	r3, [r3]
a000afc8:	e2033001 	and	r3, r3, #1	; 0x1
a000afcc:	e3530000 	cmp	r3, #0	; 0x0
a000afd0:	0a000002 	beq	a000afe0 <SerialIsReadyChar+0x3c>
a000afd4:	e3a03001 	mov	r3, #1	; 0x1
a000afd8:	e50b3010 	str	r3, [fp, #-16]
a000afdc:	ea000001 	b	a000afe8 <SerialIsReadyChar+0x44>
a000afe0:	e3a03000 	mov	r3, #0	; 0x0
a000afe4:	e50b3010 	str	r3, [fp, #-16]
a000afe8:	e51b0010 	ldr	r0, [fp, #-16]
a000afec:	e99da800 	ldmib	sp, {fp, sp, pc}
a000aff0:	a000c058 	andge	ip, r0, r8, asr r0

a000aff4 <SeriallGet_LSR>:
a000aff4:	e1a0c00d 	mov	ip, sp
a000aff8:	e92dd800 	stmdb	sp!, {fp, ip, lr, pc}
a000affc:	e24cb004 	sub	fp, ip, #4	; 0x4
a000b000:	e3a02014 	mov	r2, #20	; 0x14
a000b004:	e59f3010 	ldr	r3, [pc, #16]	; a000b01c <.text+0x301c>
a000b008:	e5933000 	ldr	r3, [r3]
a000b00c:	e0823003 	add	r3, r2, r3
a000b010:	e5933000 	ldr	r3, [r3]
a000b014:	e1a00003 	mov	r0, r3
a000b018:	e89da800 	ldmia	sp, {fp, sp, pc}
a000b01c:	a000c058 	andge	ip, r0, r8, asr r0

a000b020 <SerialIsGetChar>:
a000b020:	e1a0c00d 	mov	ip, sp
a000b024:	e92dd800 	stmdb	sp!, {fp, ip, lr, pc}
a000b028:	e24cb004 	sub	fp, ip, #4	; 0x4
a000b02c:	e59f1030 	ldr	r1, [pc, #48]	; a000b064 <.text+0x3064>
a000b030:	e3a02014 	mov	r2, #20	; 0x14
a000b034:	e59f302c 	ldr	r3, [pc, #44]	; a000b068 <.text+0x3068>
a000b038:	e5933000 	ldr	r3, [r3]
a000b03c:	e0823003 	add	r3, r2, r3
a000b040:	e5933000 	ldr	r3, [r3]
a000b044:	e203300e 	and	r3, r3, #14	; 0xe
a000b048:	e5813000 	str	r3, [r1]
a000b04c:	e59f3014 	ldr	r3, [pc, #20]	; a000b068 <.text+0x3068>
a000b050:	e5933000 	ldr	r3, [r3]
a000b054:	e5933000 	ldr	r3, [r3]
a000b058:	e20330ff 	and	r3, r3, #255	; 0xff
a000b05c:	e1a00003 	mov	r0, r3
a000b060:	e89da800 	ldmia	sp, {fp, sp, pc}
a000b064:	a000c16c 	andge	ip, r0, ip, ror #2
a000b068:	a000c058 	andge	ip, r0, r8, asr r0

a000b06c <SerialIsClearError>:
a000b06c:	e1a0c00d 	mov	ip, sp
a000b070:	e92dd800 	stmdb	sp!, {fp, ip, lr, pc}
a000b074:	e24cb004 	sub	fp, ip, #4	; 0x4
a000b078:	e59f2018 	ldr	r2, [pc, #24]	; a000b098 <.text+0x3098>
a000b07c:	e3a03000 	mov	r3, #0	; 0x0
a000b080:	e5823000 	str	r3, [r2]
a000b084:	e59f300c 	ldr	r3, [pc, #12]	; a000b098 <.text+0x3098>
a000b088:	e5933000 	ldr	r3, [r3]
a000b08c:	e20330ff 	and	r3, r3, #255	; 0xff
a000b090:	e1a00003 	mov	r0, r3
a000b094:	e89da800 	ldmia	sp, {fp, sp, pc}
a000b098:	a000c16c 	andge	ip, r0, ip, ror #2

a000b09c <SerialIsGetError>:
a000b09c:	e1a0c00d 	mov	ip, sp
a000b0a0:	e92dd800 	stmdb	sp!, {fp, ip, lr, pc}
a000b0a4:	e24cb004 	sub	fp, ip, #4	; 0x4
a000b0a8:	e59f3008 	ldr	r3, [pc, #8]	; a000b0b8 <.text+0x30b8>
a000b0ac:	e5933000 	ldr	r3, [r3]
a000b0b0:	e1a00003 	mov	r0, r3
a000b0b4:	e89da800 	ldmia	sp, {fp, sp, pc}
a000b0b8:	a000c16c 	andge	ip, r0, ip, ror #2

a000b0bc <__udivsi3>:
a000b0bc:	e3510000 	cmp	r1, #0	; 0x0
a000b0c0:	0a00001f 	beq	a000b144 <Ldiv0>
a000b0c4:	e3a03001 	mov	r3, #1	; 0x1
a000b0c8:	e3a02000 	mov	r2, #0	; 0x0
a000b0cc:	e1500001 	cmp	r0, r1
a000b0d0:	3a000019 	bcc	a000b13c <Lgot_result_udivsi3>
a000b0d4:	e3510201 	cmp	r1, #268435456	; 0x10000000
a000b0d8:	31510000 	cmpcc	r1, r0
a000b0dc:	31a01201 	movcc	r1, r1, lsl #4
a000b0e0:	31a03203 	movcc	r3, r3, lsl #4
a000b0e4:	3afffffa 	bcc	a000b0d4 <__udivsi3+0x18>
a000b0e8:	e3510102 	cmp	r1, #-2147483648	; 0x80000000
a000b0ec:	31510000 	cmpcc	r1, r0
a000b0f0:	31a01081 	movcc	r1, r1, lsl #1
a000b0f4:	31a03083 	movcc	r3, r3, lsl #1
a000b0f8:	3afffffa 	bcc	a000b0e8 <__udivsi3+0x2c>
a000b0fc:	e1500001 	cmp	r0, r1
a000b100:	20400001 	subcs	r0, r0, r1
a000b104:	21822003 	orrcs	r2, r2, r3
a000b108:	e15000a1 	cmp	r0, r1, lsr #1
a000b10c:	204000a1 	subcs	r0, r0, r1, lsr #1
a000b110:	218220a3 	orrcs	r2, r2, r3, lsr #1
a000b114:	e1500121 	cmp	r0, r1, lsr #2
a000b118:	20400121 	subcs	r0, r0, r1, lsr #2
a000b11c:	21822123 	orrcs	r2, r2, r3, lsr #2
a000b120:	e15001a1 	cmp	r0, r1, lsr #3
a000b124:	204001a1 	subcs	r0, r0, r1, lsr #3
a000b128:	218221a3 	orrcs	r2, r2, r3, lsr #3
a000b12c:	e3500000 	cmp	r0, #0	; 0x0
a000b130:	11b03223 	movnes	r3, r3, lsr #4
a000b134:	11a01221 	movne	r1, r1, lsr #4
a000b138:	1affffef 	bne	a000b0fc <__udivsi3+0x40>

a000b13c <Lgot_result_udivsi3>:
a000b13c:	e1a00002 	mov	r0, r2
a000b140:	e1a0f00e 	mov	pc, lr

a000b144 <Ldiv0>:
a000b144:	e52de004 	str	lr, [sp, #-4]!
a000b148:	ebfffffd 	bl	a000b144 <Ldiv0>
a000b14c:	e3a00000 	mov	r0, #0	; 0x0
a000b150:	e8bd8000 	ldmia	sp!, {pc}

a000b154 <__umodsi3>:
a000b154:	e3510000 	cmp	r1, #0	; 0x0
a000b158:	0afffff9 	beq	a000b144 <Ldiv0>
a000b15c:	e3a03001 	mov	r3, #1	; 0x1
a000b160:	e1500001 	cmp	r0, r1
a000b164:	31a0f00e 	movcc	pc, lr
a000b168:	e3510201 	cmp	r1, #268435456	; 0x10000000
a000b16c:	31510000 	cmpcc	r1, r0
a000b170:	31a01201 	movcc	r1, r1, lsl #4
a000b174:	31a03203 	movcc	r3, r3, lsl #4
a000b178:	3afffffa 	bcc	a000b168 <__umodsi3+0x14>
a000b17c:	e3510102 	cmp	r1, #-2147483648	; 0x80000000
a000b180:	31510000 	cmpcc	r1, r0
a000b184:	31a01081 	movcc	r1, r1, lsl #1
a000b188:	31a03083 	movcc	r3, r3, lsl #1
a000b18c:	3afffffa 	bcc	a000b17c <__umodsi3+0x28>
a000b190:	e3a02000 	mov	r2, #0	; 0x0
a000b194:	e1500001 	cmp	r0, r1
a000b198:	20400001 	subcs	r0, r0, r1
a000b19c:	e15000a1 	cmp	r0, r1, lsr #1
a000b1a0:	204000a1 	subcs	r0, r0, r1, lsr #1
a000b1a4:	218220e3 	orrcs	r2, r2, r3, ror #1
a000b1a8:	e1500121 	cmp	r0, r1, lsr #2
a000b1ac:	20400121 	subcs	r0, r0, r1, lsr #2
a000b1b0:	21822163 	orrcs	r2, r2, r3, ror #2
a000b1b4:	e15001a1 	cmp	r0, r1, lsr #3
a000b1b8:	204001a1 	subcs	r0, r0, r1, lsr #3
a000b1bc:	218221e3 	orrcs	r2, r2, r3, ror #3
a000b1c0:	e1a0c003 	mov	ip, r3
a000b1c4:	e3500000 	cmp	r0, #0	; 0x0
a000b1c8:	11b03223 	movnes	r3, r3, lsr #4
a000b1cc:	11a01221 	movne	r1, r1, lsr #4
a000b1d0:	1affffee 	bne	a000b190 <__umodsi3+0x3c>
a000b1d4:	e212220e 	ands	r2, r2, #-536870912	; 0xe0000000
a000b1d8:	01a0f00e 	moveq	pc, lr
a000b1dc:	e11201ec 	tst	r2, ip, ror #3
a000b1e0:	108001a1 	addne	r0, r0, r1, lsr #3
a000b1e4:	e112016c 	tst	r2, ip, ror #2
a000b1e8:	10800121 	addne	r0, r0, r1, lsr #2
a000b1ec:	e11200ec 	tst	r2, ip, ror #1
a000b1f0:	108000a1 	addne	r0, r0, r1, lsr #1
a000b1f4:	e1a0f00e 	mov	pc, lr

a000b1f8 <__divsi3>:
a000b1f8:	e020c001 	eor	ip, r0, r1
a000b1fc:	e3a03001 	mov	r3, #1	; 0x1
a000b200:	e3a02000 	mov	r2, #0	; 0x0
a000b204:	e3510000 	cmp	r1, #0	; 0x0
a000b208:	42611000 	rsbmi	r1, r1, #0	; 0x0
a000b20c:	0affffcc 	beq	a000b144 <Ldiv0>
a000b210:	e3500000 	cmp	r0, #0	; 0x0
a000b214:	42600000 	rsbmi	r0, r0, #0	; 0x0
a000b218:	e1500001 	cmp	r0, r1
a000b21c:	3a000019 	bcc	a000b288 <Lgot_result_divsi3>
a000b220:	e3510201 	cmp	r1, #268435456	; 0x10000000
a000b224:	31510000 	cmpcc	r1, r0
a000b228:	31a01201 	movcc	r1, r1, lsl #4
a000b22c:	31a03203 	movcc	r3, r3, lsl #4
a000b230:	3afffffa 	bcc	a000b220 <__divsi3+0x28>
a000b234:	e3510102 	cmp	r1, #-2147483648	; 0x80000000
a000b238:	31510000 	cmpcc	r1, r0
a000b23c:	31a01081 	movcc	r1, r1, lsl #1
a000b240:	31a03083 	movcc	r3, r3, lsl #1
a000b244:	3afffffa 	bcc	a000b234 <__divsi3+0x3c>
a000b248:	e1500001 	cmp	r0, r1
a000b24c:	20400001 	subcs	r0, r0, r1
a000b250:	21822003 	orrcs	r2, r2, r3
a000b254:	e15000a1 	cmp	r0, r1, lsr #1
a000b258:	204000a1 	subcs	r0, r0, r1, lsr #1
a000b25c:	218220a3 	orrcs	r2, r2, r3, lsr #1
a000b260:	e1500121 	cmp	r0, r1, lsr #2
a000b264:	20400121 	subcs	r0, r0, r1, lsr #2
a000b268:	21822123 	orrcs	r2, r2, r3, lsr #2
a000b26c:	e15001a1 	cmp	r0, r1, lsr #3
a000b270:	204001a1 	subcs	r0, r0, r1, lsr #3
a000b274:	218221a3 	orrcs	r2, r2, r3, lsr #3
a000b278:	e3500000 	cmp	r0, #0	; 0x0
a000b27c:	11b03223 	movnes	r3, r3, lsr #4
a000b280:	11a01221 	movne	r1, r1, lsr #4
a000b284:	1affffef 	bne	a000b248 <__divsi3+0x50>

a000b288 <Lgot_result_divsi3>:
a000b288:	e1a00002 	mov	r0, r2
a000b28c:	e35c0000 	cmp	ip, #0	; 0x0
a000b290:	42600000 	rsbmi	r0, r0, #0	; 0x0
a000b294:	e1a0f00e 	mov	pc, lr

a000b298 <__modsi3>:
a000b298:	e3a03001 	mov	r3, #1	; 0x1
a000b29c:	e3510000 	cmp	r1, #0	; 0x0
a000b2a0:	42611000 	rsbmi	r1, r1, #0	; 0x0
a000b2a4:	0affffa6 	beq	a000b144 <Ldiv0>
a000b2a8:	e52d0004 	str	r0, [sp, #-4]!
a000b2ac:	e3500000 	cmp	r0, #0	; 0x0
a000b2b0:	42600000 	rsbmi	r0, r0, #0	; 0x0
a000b2b4:	e1500001 	cmp	r0, r1
a000b2b8:	3a000022 	bcc	a000b348 <Lgot_result_modsi3>
a000b2bc:	e3510201 	cmp	r1, #268435456	; 0x10000000
a000b2c0:	31510000 	cmpcc	r1, r0
a000b2c4:	31a01201 	movcc	r1, r1, lsl #4
a000b2c8:	31a03203 	movcc	r3, r3, lsl #4
a000b2cc:	3afffffa 	bcc	a000b2bc <__modsi3+0x24>
a000b2d0:	e3510102 	cmp	r1, #-2147483648	; 0x80000000
a000b2d4:	31510000 	cmpcc	r1, r0
a000b2d8:	31a01081 	movcc	r1, r1, lsl #1
a000b2dc:	31a03083 	movcc	r3, r3, lsl #1
a000b2e0:	3afffffa 	bcc	a000b2d0 <__modsi3+0x38>
a000b2e4:	e3a02000 	mov	r2, #0	; 0x0
a000b2e8:	e1500001 	cmp	r0, r1
a000b2ec:	20400001 	subcs	r0, r0, r1
a000b2f0:	e15000a1 	cmp	r0, r1, lsr #1
a000b2f4:	204000a1 	subcs	r0, r0, r1, lsr #1
a000b2f8:	218220e3 	orrcs	r2, r2, r3, ror #1
a000b2fc:	e1500121 	cmp	r0, r1, lsr #2
a000b300:	20400121 	subcs	r0, r0, r1, lsr #2
a000b304:	21822163 	orrcs	r2, r2, r3, ror #2
a000b308:	e15001a1 	cmp	r0, r1, lsr #3
a000b30c:	204001a1 	subcs	r0, r0, r1, lsr #3
a000b310:	218221e3 	orrcs	r2, r2, r3, ror #3
a000b314:	e1a0c003 	mov	ip, r3
a000b318:	e3500000 	cmp	r0, #0	; 0x0
a000b31c:	11b03223 	movnes	r3, r3, lsr #4
a000b320:	11a01221 	movne	r1, r1, lsr #4
a000b324:	1affffee 	bne	a000b2e4 <__modsi3+0x4c>
a000b328:	e212220e 	ands	r2, r2, #-536870912	; 0xe0000000
a000b32c:	0a000005 	beq	a000b348 <Lgot_result_modsi3>
a000b330:	e11201ec 	tst	r2, ip, ror #3
a000b334:	108001a1 	addne	r0, r0, r1, lsr #3
a000b338:	e112016c 	tst	r2, ip, ror #2
a000b33c:	10800121 	addne	r0, r0, r1, lsr #2
a000b340:	e11200ec 	tst	r2, ip, ror #1
a000b344:	108000a1 	addne	r0, r0, r1, lsr #1

a000b348 <Lgot_result_modsi3>:
a000b348:	e49dc004 	ldr	ip, [sp], #4
a000b34c:	e35c0000 	cmp	ip, #0	; 0x0
a000b350:	42600000 	rsbmi	r0, r0, #0	; 0x0
a000b354:	e1a0f00e 	mov	pc, lr

a000b358 <scheduler>:
a000b358:	e1a0c00d 	mov	ip, sp
a000b35c:	e92dd810 	stmdb	sp!, {r4, fp, ip, lr, pc}
a000b360:	e24cb004 	sub	fp, ip, #4	; 0x4
a000b364:	e59f206c 	ldr	r2, [pc, #108]	; a000b3d8 <.text+0x33d8>
a000b368:	e59f3068 	ldr	r3, [pc, #104]	; a000b3d8 <.text+0x33d8>
a000b36c:	e5933000 	ldr	r3, [r3]
a000b370:	e2833001 	add	r3, r3, #1	; 0x1
a000b374:	e5823000 	str	r3, [r2]
a000b378:	e59f4058 	ldr	r4, [pc, #88]	; a000b3d8 <.text+0x33d8>
a000b37c:	e59f1054 	ldr	r1, [pc, #84]	; a000b3d8 <.text+0x33d8>
a000b380:	e59f3054 	ldr	r3, [pc, #84]	; a000b3dc <.text+0x33dc>
a000b384:	e5933aa0 	ldr	r3, [r3, #2720]
a000b388:	e2832001 	add	r2, r3, #1	; 0x1
a000b38c:	e5913000 	ldr	r3, [r1]
a000b390:	e1a00003 	mov	r0, r3
a000b394:	e1a01002 	mov	r1, r2
a000b398:	ebffffbe 	bl	a000b298 <__modsi3>
a000b39c:	e1a03000 	mov	r3, r0
a000b3a0:	e5843000 	str	r3, [r4]
a000b3a4:	e59f1034 	ldr	r1, [pc, #52]	; a000b3e0 <.text+0x33e0>
a000b3a8:	e59f3028 	ldr	r3, [pc, #40]	; a000b3d8 <.text+0x33d8>
a000b3ac:	e5932000 	ldr	r2, [r3]
a000b3b0:	e3a03044 	mov	r3, #68	; 0x44
a000b3b4:	e0020293 	mul	r2, r3, r2
a000b3b8:	e59f301c 	ldr	r3, [pc, #28]	; a000b3dc <.text+0x33dc>
a000b3bc:	e0823003 	add	r3, r2, r3
a000b3c0:	e5813000 	str	r3, [r1]
a000b3c4:	e59f2018 	ldr	r2, [pc, #24]	; a000b3e4 <.text+0x33e4>
a000b3c8:	e59f3010 	ldr	r3, [pc, #16]	; a000b3e0 <.text+0x33e0>
a000b3cc:	e5933000 	ldr	r3, [r3]
a000b3d0:	e5823000 	str	r3, [r2]
a000b3d4:	e89da810 	ldmia	sp, {r4, fp, sp, pc}
a000b3d8:	a000c1bc 	strgeh	ip, [r0], -ip
a000b3dc:	a000c3a8 	andge	ip, r0, r8, lsr #7
a000b3e0:	a000c174 	andge	ip, r0, r4, ror r1
a000b3e4:	a000c170 	andge	ip, r0, r0, ror r1

a000b3e8 <irqHandler>:
a000b3e8:	e1a0c00d 	mov	ip, sp
a000b3ec:	e92dd800 	stmdb	sp!, {fp, ip, lr, pc}
a000b3f0:	e24cb004 	sub	fp, ip, #4	; 0x4
a000b3f4:	e3a03101 	mov	r3, #1073741824	; 0x40000000
a000b3f8:	e283360d 	add	r3, r3, #13631488	; 0xd00000
a000b3fc:	e5933000 	ldr	r3, [r3]
a000b400:	e1a03da3 	mov	r3, r3, lsr #27
a000b404:	e2033001 	and	r3, r3, #1	; 0x1
a000b408:	e3530000 	cmp	r3, #0	; 0x0
a000b40c:	0a00000b 	beq	a000b440 <irqHandler+0x58>
a000b410:	e3a03151 	mov	r3, #1073741844	; 0x40000014
a000b414:	e283360a 	add	r3, r3, #10485760	; 0xa00000
a000b418:	e3a02002 	mov	r2, #2	; 0x2
a000b41c:	e5832000 	str	r2, [r3]
a000b420:	e3a02111 	mov	r2, #1073741828	; 0x40000004
a000b424:	e282260a 	add	r2, r2, #10485760	; 0xa00000
a000b428:	e3a03141 	mov	r3, #1073741840	; 0x40000010
a000b42c:	e283360a 	add	r3, r3, #10485760	; 0xa00000
a000b430:	e5933000 	ldr	r3, [r3]
a000b434:	e28339e1 	add	r3, r3, #3686400	; 0x384000
a000b438:	e5823000 	str	r3, [r2]
a000b43c:	ebffffc5 	bl	a000b358 <scheduler>
a000b440:	e3a03101 	mov	r3, #1073741824	; 0x40000000
a000b444:	e283360d 	add	r3, r3, #13631488	; 0xd00000
a000b448:	e5933000 	ldr	r3, [r3]
a000b44c:	e1a03423 	mov	r3, r3, lsr #8
a000b450:	e2033001 	and	r3, r3, #1	; 0x1
a000b454:	e3530000 	cmp	r3, #0	; 0x0
a000b458:	0a000004 	beq	a000b470 <irqHandler+0x88>
a000b45c:	e59f2010 	ldr	r2, [pc, #16]	; a000b474 <.text+0x3474>
a000b460:	e3a03001 	mov	r3, #1	; 0x1
a000b464:	e5823000 	str	r3, [r2]
a000b468:	e59f0008 	ldr	r0, [pc, #8]	; a000b478 <.text+0x3478>
a000b46c:	ebfff830 	bl	a0009534 <printf>
a000b470:	e89da800 	ldmia	sp, {fp, sp, pc}
a000b474:	40e00048 	rscmi	r0, r0, r8, asr #32
a000b478:	a000be38 	andge	fp, r0, r8, lsr lr

a000b47c <os_timer_init>:
a000b47c:	e1a0c00d 	mov	ip, sp
a000b480:	e92dd800 	stmdb	sp!, {fp, ip, lr, pc}
a000b484:	e24cb004 	sub	fp, ip, #4	; 0x4
a000b488:	e3a03151 	mov	r3, #1073741844	; 0x40000014
a000b48c:	e283360d 	add	r3, r3, #13631488	; 0xd00000
a000b490:	e3a02001 	mov	r2, #1	; 0x1
a000b494:	e5832000 	str	r2, [r3]
a000b498:	e3a02111 	mov	r2, #1073741828	; 0x40000004
a000b49c:	e282260d 	add	r2, r2, #13631488	; 0xd00000
a000b4a0:	e3a03111 	mov	r3, #1073741828	; 0x40000004
a000b4a4:	e283360d 	add	r3, r3, #13631488	; 0xd00000
a000b4a8:	e5933000 	ldr	r3, [r3]
a000b4ac:	e3833302 	orr	r3, r3, #134217728	; 0x8000000
a000b4b0:	e5823000 	str	r3, [r2]
a000b4b4:	e3a02121 	mov	r2, #1073741832	; 0x40000008
a000b4b8:	e282260d 	add	r2, r2, #13631488	; 0xd00000
a000b4bc:	e3a03121 	mov	r3, #1073741832	; 0x40000008
a000b4c0:	e283360d 	add	r3, r3, #13631488	; 0xd00000
a000b4c4:	e5933000 	ldr	r3, [r3]
a000b4c8:	e3c33302 	bic	r3, r3, #134217728	; 0x8000000
a000b4cc:	e5823000 	str	r3, [r2]
a000b4d0:	e3a03141 	mov	r3, #1073741840	; 0x40000010
a000b4d4:	e283360a 	add	r3, r3, #10485760	; 0xa00000
a000b4d8:	e3a02000 	mov	r2, #0	; 0x0
a000b4dc:	e5832000 	str	r2, [r3]
a000b4e0:	e3a02111 	mov	r2, #1073741828	; 0x40000004
a000b4e4:	e282260a 	add	r2, r2, #10485760	; 0xa00000
a000b4e8:	e3a03141 	mov	r3, #1073741840	; 0x40000010
a000b4ec:	e283360a 	add	r3, r3, #10485760	; 0xa00000
a000b4f0:	e5933000 	ldr	r3, [r3]
a000b4f4:	e28339e1 	add	r3, r3, #3686400	; 0x384000
a000b4f8:	e5823000 	str	r3, [r2]
a000b4fc:	e3a03151 	mov	r3, #1073741844	; 0x40000014
a000b500:	e283360a 	add	r3, r3, #10485760	; 0xa00000
a000b504:	e3a02002 	mov	r2, #2	; 0x2
a000b508:	e5832000 	str	r2, [r3]
a000b50c:	e89da800 	ldmia	sp, {fp, sp, pc}

a000b510 <os_timer_start>:
a000b510:	e1a0c00d 	mov	ip, sp
a000b514:	e92dd800 	stmdb	sp!, {fp, ip, lr, pc}
a000b518:	e24cb004 	sub	fp, ip, #4	; 0x4
a000b51c:	e3a02171 	mov	r2, #1073741852	; 0x4000001c
a000b520:	e282260a 	add	r2, r2, #10485760	; 0xa00000
a000b524:	e3a03171 	mov	r3, #1073741852	; 0x4000001c
a000b528:	e283360a 	add	r3, r3, #10485760	; 0xa00000
a000b52c:	e5933000 	ldr	r3, [r3]
a000b530:	e3833002 	orr	r3, r3, #2	; 0x2
a000b534:	e5823000 	str	r3, [r2]
a000b538:	e3a03151 	mov	r3, #1073741844	; 0x40000014
a000b53c:	e283360a 	add	r3, r3, #10485760	; 0xa00000
a000b540:	e3a02002 	mov	r2, #2	; 0x2
a000b544:	e5832000 	str	r2, [r3]
a000b548:	e89da800 	ldmia	sp, {fp, sp, pc}

a000b54c <gpio0_init>:
a000b54c:	e1a0c00d 	mov	ip, sp
a000b550:	e92dd800 	stmdb	sp!, {fp, ip, lr, pc}
a000b554:	e24cb004 	sub	fp, ip, #4	; 0x4
a000b558:	e3a02131 	mov	r2, #1073741836	; 0x4000000c
a000b55c:	e282260e 	add	r2, r2, #14680064	; 0xe00000
a000b560:	e3a03131 	mov	r3, #1073741836	; 0x4000000c
a000b564:	e283360e 	add	r3, r3, #14680064	; 0xe00000
a000b568:	e5933000 	ldr	r3, [r3]
a000b56c:	e3c33001 	bic	r3, r3, #1	; 0x1
a000b570:	e5823000 	str	r3, [r2]
a000b574:	e59f2080 	ldr	r2, [pc, #128]	; a000b5fc <.text+0x35fc>
a000b578:	e59f307c 	ldr	r3, [pc, #124]	; a000b5fc <.text+0x35fc>
a000b57c:	e5933000 	ldr	r3, [r3]
a000b580:	e3c33003 	bic	r3, r3, #3	; 0x3
a000b584:	e5823000 	str	r3, [r2]
a000b588:	e3a021c1 	mov	r2, #1073741872	; 0x40000030
a000b58c:	e282260e 	add	r2, r2, #14680064	; 0xe00000
a000b590:	e3a031c1 	mov	r3, #1073741872	; 0x40000030
a000b594:	e283360e 	add	r3, r3, #14680064	; 0xe00000
a000b598:	e5933000 	ldr	r3, [r3]
a000b59c:	e3c33001 	bic	r3, r3, #1	; 0x1
a000b5a0:	e5823000 	str	r3, [r2]
a000b5a4:	e3a021f1 	mov	r2, #1073741884	; 0x4000003c
a000b5a8:	e282260e 	add	r2, r2, #14680064	; 0xe00000
a000b5ac:	e3a031f1 	mov	r3, #1073741884	; 0x4000003c
a000b5b0:	e283360e 	add	r3, r3, #14680064	; 0xe00000
a000b5b4:	e5933000 	ldr	r3, [r3]
a000b5b8:	e3833001 	orr	r3, r3, #1	; 0x1
a000b5bc:	e5823000 	str	r3, [r2]
a000b5c0:	e3a02111 	mov	r2, #1073741828	; 0x40000004
a000b5c4:	e282260d 	add	r2, r2, #13631488	; 0xd00000
a000b5c8:	e3a03111 	mov	r3, #1073741828	; 0x40000004
a000b5cc:	e283360d 	add	r3, r3, #13631488	; 0xd00000
a000b5d0:	e5933000 	ldr	r3, [r3]
a000b5d4:	e3833c01 	orr	r3, r3, #256	; 0x100
a000b5d8:	e5823000 	str	r3, [r2]
a000b5dc:	e3a02121 	mov	r2, #1073741832	; 0x40000008
a000b5e0:	e282260d 	add	r2, r2, #13631488	; 0xd00000
a000b5e4:	e3a03121 	mov	r3, #1073741832	; 0x40000008
a000b5e8:	e283360d 	add	r3, r3, #13631488	; 0xd00000
a000b5ec:	e5933000 	ldr	r3, [r3]
a000b5f0:	e3c33c01 	bic	r3, r3, #256	; 0x100
a000b5f4:	e5823000 	str	r3, [r2]
a000b5f8:	e89da800 	ldmia	sp, {fp, sp, pc}
a000b5fc:	40e00054 	rscmi	r0, r0, r4, asr r0

a000b600 <irq_enable>:
a000b600:	e1a0c00d 	mov	ip, sp
a000b604:	e92dd800 	stmdb	sp!, {fp, ip, lr, pc}
a000b608:	e24cb004 	sub	fp, ip, #4	; 0x4
a000b60c:	e321f053 	msr	CPSR_c, #83	; 0x53
a000b610:	e89da800 	ldmia	sp, {fp, sp, pc}

a000b614 <irq_disable>:
a000b614:	e1a0c00d 	mov	ip, sp
a000b618:	e92dd800 	stmdb	sp!, {fp, ip, lr, pc}
a000b61c:	e24cb004 	sub	fp, ip, #4	; 0x4
a000b620:	e321f0d3 	msr	CPSR_c, #211	; 0xd3
a000b624:	e89da800 	ldmia	sp, {fp, sp, pc}

a000b628 <sched_init>:
a000b628:	e1a0c00d 	mov	ip, sp
a000b62c:	e92dd800 	stmdb	sp!, {fp, ip, lr, pc}
a000b630:	e24cb004 	sub	fp, ip, #4	; 0x4
a000b634:	e24dd004 	sub	sp, sp, #4	; 0x4
a000b638:	e59f3048 	ldr	r3, [pc, #72]	; a000b688 <.text+0x3688>
a000b63c:	e5933aa0 	ldr	r3, [r3, #2720]
a000b640:	e3530000 	cmp	r3, #0	; 0x0
a000b644:	aa000002 	bge	a000b654 <sched_init+0x2c>
a000b648:	e3e03000 	mvn	r3, #0	; 0x0
a000b64c:	e50b3010 	str	r3, [fp, #-16]
a000b650:	ea00000a 	b	a000b680 <sched_init+0x58>
a000b654:	e59f2030 	ldr	r2, [pc, #48]	; a000b68c <.text+0x368c>
a000b658:	e59f3030 	ldr	r3, [pc, #48]	; a000b690 <.text+0x3690>
a000b65c:	e5823000 	str	r3, [r2]
a000b660:	e59f202c 	ldr	r2, [pc, #44]	; a000b694 <.text+0x3694>
a000b664:	e59f301c 	ldr	r3, [pc, #28]	; a000b688 <.text+0x3688>
a000b668:	e5823000 	str	r3, [r2]
a000b66c:	e59f2024 	ldr	r2, [pc, #36]	; a000b698 <.text+0x3698>
a000b670:	e3e03000 	mvn	r3, #0	; 0x0
a000b674:	e5823000 	str	r3, [r2]
a000b678:	e3a03000 	mov	r3, #0	; 0x0
a000b67c:	e50b3010 	str	r3, [fp, #-16]
a000b680:	e51b0010 	ldr	r0, [fp, #-16]
a000b684:	e99da800 	ldmib	sp, {fp, sp, pc}
a000b688:	a000c3a8 	andge	ip, r0, r8, lsr #7
a000b68c:	a000c170 	andge	ip, r0, r0, ror r1
a000b690:	a000c178 	andge	ip, r0, r8, ror r1
a000b694:	a000c174 	andge	ip, r0, r4, ror r1
a000b698:	a000c1bc 	strgeh	ip, [r0], -ip

a000b69c <navilnux_init>:
a000b69c:	e1a0c00d 	mov	ip, sp
a000b6a0:	e92dd800 	stmdb	sp!, {fp, ip, lr, pc}
a000b6a4:	e24cb004 	sub	fp, ip, #4	; 0x4
a000b6a8:	eb00007d 	bl	a000b8a4 <mem_init>
a000b6ac:	eb0000f9 	bl	a000ba98 <task_init>
a000b6b0:	eb000150 	bl	a000bbf8 <syscall_init>
a000b6b4:	ebffff70 	bl	a000b47c <os_timer_init>
a000b6b8:	ebffffa3 	bl	a000b54c <gpio0_init>
a000b6bc:	ebffff93 	bl	a000b510 <os_timer_start>
a000b6c0:	e89da800 	ldmia	sp, {fp, sp, pc}

a000b6c4 <main>:
a000b6c4:	e1a0c00d 	mov	ip, sp
a000b6c8:	e92dd800 	stmdb	sp!, {fp, ip, lr, pc}
a000b6cc:	e24cb004 	sub	fp, ip, #4	; 0x4
a000b6d0:	e24dd008 	sub	sp, sp, #8	; 0x8
a000b6d4:	ebfffff0 	bl	a000b69c <navilnux_init>
a000b6d8:	eb0001a0 	bl	a000bd60 <navilnux_user>
a000b6dc:	ebffffd1 	bl	a000b628 <sched_init>
a000b6e0:	e1a03000 	mov	r3, r0
a000b6e4:	e3530000 	cmp	r3, #0	; 0x0
a000b6e8:	aa000004 	bge	a000b700 <main+0x3c>
a000b6ec:	e59f00cc 	ldr	r0, [pc, #204]	; a000b7c0 <.text+0x37c0>
a000b6f0:	ebfff78f 	bl	a0009534 <printf>
a000b6f4:	e3e03000 	mvn	r3, #0	; 0x0
a000b6f8:	e50b3014 	str	r3, [fp, #-20]
a000b6fc:	ea00002c 	b	a000b7b4 <main+0xf0>
a000b700:	e3a03000 	mov	r3, #0	; 0x0
a000b704:	e50b3010 	str	r3, [fp, #-16]
a000b708:	e59f30b4 	ldr	r3, [pc, #180]	; a000b7c4 <.text+0x37c4>
a000b70c:	e5932aa0 	ldr	r2, [r3, #2720]
a000b710:	e51b3010 	ldr	r3, [fp, #-16]
a000b714:	e1520003 	cmp	r2, r3
a000b718:	ba000018 	blt	a000b780 <main+0xbc>
a000b71c:	e51b3010 	ldr	r3, [fp, #-16]
a000b720:	e283e001 	add	lr, r3, #1	; 0x1
a000b724:	e59f1098 	ldr	r1, [pc, #152]	; a000b7c4 <.text+0x37c4>
a000b728:	e51b2010 	ldr	r2, [fp, #-16]
a000b72c:	e3a00040 	mov	r0, #64	; 0x40
a000b730:	e3a03044 	mov	r3, #68	; 0x44
a000b734:	e0030392 	mul	r3, r2, r3
a000b738:	e0833001 	add	r3, r3, r1
a000b73c:	e083c000 	add	ip, r3, r0
a000b740:	e59f107c 	ldr	r1, [pc, #124]	; a000b7c4 <.text+0x37c4>
a000b744:	e51b2010 	ldr	r2, [fp, #-16]
a000b748:	e3a00038 	mov	r0, #56	; 0x38
a000b74c:	e3a03044 	mov	r3, #68	; 0x44
a000b750:	e0030392 	mul	r3, r2, r3
a000b754:	e0833001 	add	r3, r3, r1
a000b758:	e0833000 	add	r3, r3, r0
a000b75c:	e59f0064 	ldr	r0, [pc, #100]	; a000b7c8 <.text+0x37c8>
a000b760:	e1a0100e 	mov	r1, lr
a000b764:	e59c2000 	ldr	r2, [ip]
a000b768:	e5933000 	ldr	r3, [r3]
a000b76c:	ebfff770 	bl	a0009534 <printf>
a000b770:	e51b3010 	ldr	r3, [fp, #-16]
a000b774:	e2833001 	add	r3, r3, #1	; 0x1
a000b778:	e50b3010 	str	r3, [fp, #-16]
a000b77c:	eaffffe1 	b	a000b708 <main+0x44>
a000b780:	e59f0044 	ldr	r0, [pc, #68]	; a000b7cc <.text+0x37cc>
a000b784:	e59f1044 	ldr	r1, [pc, #68]	; a000b7d0 <.text+0x37d0>
a000b788:	ebfff769 	bl	a0009534 <printf>
a000b78c:	e59f0040 	ldr	r0, [pc, #64]	; a000b7d4 <.text+0x37d4>
a000b790:	e59f1040 	ldr	r1, [pc, #64]	; a000b7d8 <.text+0x37d8>
a000b794:	ebfff766 	bl	a0009534 <printf>
a000b798:	e59f003c 	ldr	r0, [pc, #60]	; a000b7dc <.text+0x37dc>
a000b79c:	e59f103c 	ldr	r1, [pc, #60]	; a000b7e0 <.text+0x37e0>
a000b7a0:	ebfff763 	bl	a0009534 <printf>
a000b7a4:	ebffff95 	bl	a000b600 <irq_enable>
a000b7a8:	e3a00ffa 	mov	r0, #1000	; 0x3e8
a000b7ac:	ebfff347 	bl	a00084d0 <msleep>
a000b7b0:	eafffffc 	b	a000b7a8 <main+0xe4>
a000b7b4:	e51b0014 	ldr	r0, [fp, #-20]
a000b7b8:	e24bd00c 	sub	sp, fp, #12	; 0xc
a000b7bc:	e89da800 	ldmia	sp, {fp, sp, pc}
a000b7c0:	a000be48 	andge	fp, r0, r8, asr #28
a000b7c4:	a000c3a8 	andge	ip, r0, r8, lsr #7
a000b7c8:	a000be58 	andge	fp, r0, r8, asr lr
a000b7cc:	a000be88 	andge	fp, r0, r8, lsl #29
a000b7d0:	a000bc24 	andge	fp, r0, r4, lsr #24
a000b7d4:	a000bea0 	andge	fp, r0, r0, lsr #29
a000b7d8:	a000bc80 	andge	fp, r0, r0, lsl #25
a000b7dc:	a000beb8 	strgeh	fp, [r0], -r8
a000b7e0:	a000bcdc 	ldrged	fp, [r0], -ip

a000b7e4 <mem_alloc>:
a000b7e4:	e1a0c00d 	mov	ip, sp
a000b7e8:	e92dd800 	stmdb	sp!, {fp, ip, lr, pc}
a000b7ec:	e24cb004 	sub	fp, ip, #4	; 0x4
a000b7f0:	e24dd008 	sub	sp, sp, #8	; 0x8
a000b7f4:	e3a03000 	mov	r3, #0	; 0x0
a000b7f8:	e50b3010 	str	r3, [fp, #-16]
a000b7fc:	e51b3010 	ldr	r3, [fp, #-16]
a000b800:	e3530027 	cmp	r3, #39	; 0x27
a000b804:	ca000020 	bgt	a000b88c <mem_alloc+0xa8>
a000b808:	e59f1090 	ldr	r1, [pc, #144]	; a000b8a0 <.text+0x38a0>
a000b80c:	e51b2010 	ldr	r2, [fp, #-16]
a000b810:	e3a00008 	mov	r0, #8	; 0x8
a000b814:	e3a0300c 	mov	r3, #12	; 0xc
a000b818:	e0030392 	mul	r3, r2, r3
a000b81c:	e0833001 	add	r3, r3, r1
a000b820:	e0833000 	add	r3, r3, r0
a000b824:	e5933000 	ldr	r3, [r3]
a000b828:	e3530000 	cmp	r3, #0	; 0x0
a000b82c:	1a000012 	bne	a000b87c <mem_alloc+0x98>
a000b830:	e59f1068 	ldr	r1, [pc, #104]	; a000b8a0 <.text+0x38a0>
a000b834:	e51b2010 	ldr	r2, [fp, #-16]
a000b838:	e3a00008 	mov	r0, #8	; 0x8
a000b83c:	e3a0300c 	mov	r3, #12	; 0xc
a000b840:	e0030392 	mul	r3, r2, r3
a000b844:	e0833001 	add	r3, r3, r1
a000b848:	e0832000 	add	r2, r3, r0
a000b84c:	e3a03001 	mov	r3, #1	; 0x1
a000b850:	e5823000 	str	r3, [r2]
a000b854:	e59f1044 	ldr	r1, [pc, #68]	; a000b8a0 <.text+0x38a0>
a000b858:	e51b2010 	ldr	r2, [fp, #-16]
a000b85c:	e3a00004 	mov	r0, #4	; 0x4
a000b860:	e3a0300c 	mov	r3, #12	; 0xc
a000b864:	e0030392 	mul	r3, r2, r3
a000b868:	e0833001 	add	r3, r3, r1
a000b86c:	e0833000 	add	r3, r3, r0
a000b870:	e5933000 	ldr	r3, [r3]
a000b874:	e50b3014 	str	r3, [fp, #-20]
a000b878:	ea000005 	b	a000b894 <mem_alloc+0xb0>
a000b87c:	e51b3010 	ldr	r3, [fp, #-16]
a000b880:	e2833001 	add	r3, r3, #1	; 0x1
a000b884:	e50b3010 	str	r3, [fp, #-16]
a000b888:	eaffffdb 	b	a000b7fc <mem_alloc+0x18>
a000b88c:	e3a03000 	mov	r3, #0	; 0x0
a000b890:	e50b3014 	str	r3, [fp, #-20]
a000b894:	e51b0014 	ldr	r0, [fp, #-20]
a000b898:	e24bd00c 	sub	sp, fp, #12	; 0xc
a000b89c:	e89da800 	ldmia	sp, {fp, sp, pc}
a000b8a0:	a000c1c0 	andge	ip, r0, r0, asr #3

a000b8a4 <mem_init>:
a000b8a4:	e1a0c00d 	mov	ip, sp
a000b8a8:	e92dd800 	stmdb	sp!, {fp, ip, lr, pc}
a000b8ac:	e24cb004 	sub	fp, ip, #4	; 0x4
a000b8b0:	e24dd008 	sub	sp, sp, #8	; 0x8
a000b8b4:	e3a0320a 	mov	r3, #-1610612736	; 0xa0000000
a000b8b8:	e2833501 	add	r3, r3, #4194304	; 0x400000
a000b8bc:	e50b3010 	str	r3, [fp, #-16]
a000b8c0:	e3a03000 	mov	r3, #0	; 0x0
a000b8c4:	e50b3014 	str	r3, [fp, #-20]
a000b8c8:	e51b3014 	ldr	r3, [fp, #-20]
a000b8cc:	e3530027 	cmp	r3, #39	; 0x27
a000b8d0:	ca000021 	bgt	a000b95c <mem_init+0xb8>
a000b8d4:	e59f10a0 	ldr	r1, [pc, #160]	; a000b97c <.text+0x397c>
a000b8d8:	e51b2014 	ldr	r2, [fp, #-20]
a000b8dc:	e3a0300c 	mov	r3, #12	; 0xc
a000b8e0:	e0030392 	mul	r3, r2, r3
a000b8e4:	e0832001 	add	r2, r3, r1
a000b8e8:	e51b3010 	ldr	r3, [fp, #-16]
a000b8ec:	e5823000 	str	r3, [r2]
a000b8f0:	e59f1084 	ldr	r1, [pc, #132]	; a000b97c <.text+0x397c>
a000b8f4:	e51b2014 	ldr	r2, [fp, #-20]
a000b8f8:	e3a00004 	mov	r0, #4	; 0x4
a000b8fc:	e3a0300c 	mov	r3, #12	; 0xc
a000b900:	e0030392 	mul	r3, r2, r3
a000b904:	e0833001 	add	r3, r3, r1
a000b908:	e0832000 	add	r2, r3, r0
a000b90c:	e51b3010 	ldr	r3, [fp, #-16]
a000b910:	e243324f 	sub	r3, r3, #-268435452	; 0xf0000004
a000b914:	e24336ff 	sub	r3, r3, #267386880	; 0xff00000
a000b918:	e5823000 	str	r3, [r2]
a000b91c:	e59f1058 	ldr	r1, [pc, #88]	; a000b97c <.text+0x397c>
a000b920:	e51b2014 	ldr	r2, [fp, #-20]
a000b924:	e3a00008 	mov	r0, #8	; 0x8
a000b928:	e3a0300c 	mov	r3, #12	; 0xc
a000b92c:	e0030392 	mul	r3, r2, r3
a000b930:	e0833001 	add	r3, r3, r1
a000b934:	e0832000 	add	r2, r3, r0
a000b938:	e3a03000 	mov	r3, #0	; 0x0
a000b93c:	e5823000 	str	r3, [r2]
a000b940:	e51b3010 	ldr	r3, [fp, #-16]
a000b944:	e2833601 	add	r3, r3, #1048576	; 0x100000
a000b948:	e50b3010 	str	r3, [fp, #-16]
a000b94c:	e51b3014 	ldr	r3, [fp, #-20]
a000b950:	e2833001 	add	r3, r3, #1	; 0x1
a000b954:	e50b3014 	str	r3, [fp, #-20]
a000b958:	eaffffda 	b	a000b8c8 <mem_init+0x24>
a000b95c:	e59f2018 	ldr	r2, [pc, #24]	; a000b97c <.text+0x397c>
a000b960:	e59f3018 	ldr	r3, [pc, #24]	; a000b980 <.text+0x3980>
a000b964:	e58231e0 	str	r3, [r2, #480]
a000b968:	e59f200c 	ldr	r2, [pc, #12]	; a000b97c <.text+0x397c>
a000b96c:	e59f3010 	ldr	r3, [pc, #16]	; a000b984 <.text+0x3984>
a000b970:	e58231e4 	str	r3, [r2, #484]
a000b974:	e24bd00c 	sub	sp, fp, #12	; 0xc
a000b978:	e89da800 	ldmia	sp, {fp, sp, pc}
a000b97c:	a000c1c0 	andge	ip, r0, r0, asr #3
a000b980:	a000b8a4 	andge	fp, r0, r4, lsr #17
a000b984:	a000b7e4 	andge	fp, r0, r4, ror #15

a000b988 <task_create>:
a000b988:	e1a0c00d 	mov	ip, sp
a000b98c:	e92dd800 	stmdb	sp!, {fp, ip, lr, pc}
a000b990:	e24cb004 	sub	fp, ip, #4	; 0x4
a000b994:	e24dd010 	sub	sp, sp, #16	; 0x10
a000b998:	e50b0010 	str	r0, [fp, #-16]
a000b99c:	e3a03000 	mov	r3, #0	; 0x0
a000b9a0:	e50b3014 	str	r3, [fp, #-20]
a000b9a4:	e3a03000 	mov	r3, #0	; 0x0
a000b9a8:	e50b3018 	str	r3, [fp, #-24]
a000b9ac:	e59f20dc 	ldr	r2, [pc, #220]	; a000ba90 <.text+0x3a90>
a000b9b0:	e59f30d8 	ldr	r3, [pc, #216]	; a000ba90 <.text+0x3a90>
a000b9b4:	e5933aa0 	ldr	r3, [r3, #2720]
a000b9b8:	e2833001 	add	r3, r3, #1	; 0x1
a000b9bc:	e5823aa0 	str	r3, [r2, #2720]
a000b9c0:	e59f30c8 	ldr	r3, [pc, #200]	; a000ba90 <.text+0x3a90>
a000b9c4:	e5933aa0 	ldr	r3, [r3, #2720]
a000b9c8:	e50b3014 	str	r3, [fp, #-20]
a000b9cc:	e51b3014 	ldr	r3, [fp, #-20]
a000b9d0:	e3530028 	cmp	r3, #40	; 0x28
a000b9d4:	da000002 	ble	a000b9e4 <task_create+0x5c>
a000b9d8:	e3e03000 	mvn	r3, #0	; 0x0
a000b9dc:	e50b301c 	str	r3, [fp, #-28]
a000b9e0:	ea000027 	b	a000ba84 <task_create+0xfc>
a000b9e4:	e59f30a8 	ldr	r3, [pc, #168]	; a000ba94 <.text+0x3a94>
a000b9e8:	e59331e4 	ldr	r3, [r3, #484]
a000b9ec:	e1a0e00f 	mov	lr, pc
a000b9f0:	e1a0f003 	mov	pc, r3
a000b9f4:	e1a03000 	mov	r3, r0
a000b9f8:	e50b3018 	str	r3, [fp, #-24]
a000b9fc:	e51b3018 	ldr	r3, [fp, #-24]
a000ba00:	e3530000 	cmp	r3, #0	; 0x0
a000ba04:	1a000002 	bne	a000ba14 <task_create+0x8c>
a000ba08:	e3e03001 	mvn	r3, #1	; 0x1
a000ba0c:	e50b301c 	str	r3, [fp, #-28]
a000ba10:	ea00001b 	b	a000ba84 <task_create+0xfc>
a000ba14:	e59f1074 	ldr	r1, [pc, #116]	; a000ba90 <.text+0x3a90>
a000ba18:	e51b2014 	ldr	r2, [fp, #-20]
a000ba1c:	e3a03044 	mov	r3, #68	; 0x44
a000ba20:	e0030392 	mul	r3, r2, r3
a000ba24:	e0832001 	add	r2, r3, r1
a000ba28:	e3a0331a 	mov	r3, #1744830464	; 0x68000000
a000ba2c:	e2833050 	add	r3, r3, #80	; 0x50
a000ba30:	e5823000 	str	r3, [r2]
a000ba34:	e59f1054 	ldr	r1, [pc, #84]	; a000ba90 <.text+0x3a90>
a000ba38:	e51b2014 	ldr	r2, [fp, #-20]
a000ba3c:	e3a00038 	mov	r0, #56	; 0x38
a000ba40:	e3a03044 	mov	r3, #68	; 0x44
a000ba44:	e0030392 	mul	r3, r2, r3
a000ba48:	e0833001 	add	r3, r3, r1
a000ba4c:	e0832000 	add	r2, r3, r0
a000ba50:	e51b3018 	ldr	r3, [fp, #-24]
a000ba54:	e5823000 	str	r3, [r2]
a000ba58:	e59f1030 	ldr	r1, [pc, #48]	; a000ba90 <.text+0x3a90>
a000ba5c:	e51b2014 	ldr	r2, [fp, #-20]
a000ba60:	e3a00040 	mov	r0, #64	; 0x40
a000ba64:	e3a03044 	mov	r3, #68	; 0x44
a000ba68:	e0030392 	mul	r3, r2, r3
a000ba6c:	e0833001 	add	r3, r3, r1
a000ba70:	e0832000 	add	r2, r3, r0
a000ba74:	e51b3010 	ldr	r3, [fp, #-16]
a000ba78:	e5823000 	str	r3, [r2]
a000ba7c:	e51b3014 	ldr	r3, [fp, #-20]
a000ba80:	e50b301c 	str	r3, [fp, #-28]
a000ba84:	e51b001c 	ldr	r0, [fp, #-28]
a000ba88:	e24bd00c 	sub	sp, fp, #12	; 0xc
a000ba8c:	e89da800 	ldmia	sp, {fp, sp, pc}
a000ba90:	a000c3a8 	andge	ip, r0, r8, lsr #7
a000ba94:	a000c1c0 	andge	ip, r0, r0, asr #3

a000ba98 <task_init>:
a000ba98:	e1a0c00d 	mov	ip, sp
a000ba9c:	e92dd800 	stmdb	sp!, {fp, ip, lr, pc}
a000baa0:	e24cb004 	sub	fp, ip, #4	; 0x4
a000baa4:	e24dd004 	sub	sp, sp, #4	; 0x4
a000baa8:	e3a03000 	mov	r3, #0	; 0x0
a000baac:	e50b3010 	str	r3, [fp, #-16]
a000bab0:	e51b3010 	ldr	r3, [fp, #-16]
a000bab4:	e3530027 	cmp	r3, #39	; 0x27
a000bab8:	ca00002e 	bgt	a000bb78 <task_init+0xe0>
a000babc:	e59f10dc 	ldr	r1, [pc, #220]	; a000bba0 <.text+0x3ba0>
a000bac0:	e51b2010 	ldr	r2, [fp, #-16]
a000bac4:	e3a03044 	mov	r3, #68	; 0x44
a000bac8:	e0030392 	mul	r3, r2, r3
a000bacc:	e0832001 	add	r2, r3, r1
a000bad0:	e3a03000 	mov	r3, #0	; 0x0
a000bad4:	e5823000 	str	r3, [r2]
a000bad8:	e51b2010 	ldr	r2, [fp, #-16]
a000badc:	e3a03044 	mov	r3, #68	; 0x44
a000bae0:	e0020293 	mul	r2, r3, r2
a000bae4:	e59f30b8 	ldr	r3, [pc, #184]	; a000bba4 <.text+0x3ba4>
a000bae8:	e0823003 	add	r3, r2, r3
a000baec:	e1a00003 	mov	r0, r3
a000baf0:	e3a01000 	mov	r1, #0	; 0x0
a000baf4:	e3a02034 	mov	r2, #52	; 0x34
a000baf8:	ebfffae2 	bl	a000a688 <memset>
a000bafc:	e59f109c 	ldr	r1, [pc, #156]	; a000bba0 <.text+0x3ba0>
a000bb00:	e51b2010 	ldr	r2, [fp, #-16]
a000bb04:	e3a00038 	mov	r0, #56	; 0x38
a000bb08:	e3a03044 	mov	r3, #68	; 0x44
a000bb0c:	e0030392 	mul	r3, r2, r3
a000bb10:	e0833001 	add	r3, r3, r1
a000bb14:	e0832000 	add	r2, r3, r0
a000bb18:	e3a03000 	mov	r3, #0	; 0x0
a000bb1c:	e5823000 	str	r3, [r2]
a000bb20:	e59f1078 	ldr	r1, [pc, #120]	; a000bba0 <.text+0x3ba0>
a000bb24:	e51b2010 	ldr	r2, [fp, #-16]
a000bb28:	e3a0003c 	mov	r0, #60	; 0x3c
a000bb2c:	e3a03044 	mov	r3, #68	; 0x44
a000bb30:	e0030392 	mul	r3, r2, r3
a000bb34:	e0833001 	add	r3, r3, r1
a000bb38:	e0832000 	add	r2, r3, r0
a000bb3c:	e3a03000 	mov	r3, #0	; 0x0
a000bb40:	e5823000 	str	r3, [r2]
a000bb44:	e59f1054 	ldr	r1, [pc, #84]	; a000bba0 <.text+0x3ba0>
a000bb48:	e51b2010 	ldr	r2, [fp, #-16]
a000bb4c:	e3a00040 	mov	r0, #64	; 0x40
a000bb50:	e3a03044 	mov	r3, #68	; 0x44
a000bb54:	e0030392 	mul	r3, r2, r3
a000bb58:	e0833001 	add	r3, r3, r1
a000bb5c:	e0832000 	add	r2, r3, r0
a000bb60:	e3a03000 	mov	r3, #0	; 0x0
a000bb64:	e5823000 	str	r3, [r2]
a000bb68:	e51b3010 	ldr	r3, [fp, #-16]
a000bb6c:	e2833001 	add	r3, r3, #1	; 0x1
a000bb70:	e50b3010 	str	r3, [fp, #-16]
a000bb74:	eaffffcd 	b	a000bab0 <task_init+0x18>
a000bb78:	e59f2020 	ldr	r2, [pc, #32]	; a000bba0 <.text+0x3ba0>
a000bb7c:	e3e03000 	mvn	r3, #0	; 0x0
a000bb80:	e5823aa0 	str	r3, [r2, #2720]
a000bb84:	e59f2014 	ldr	r2, [pc, #20]	; a000bba0 <.text+0x3ba0>
a000bb88:	e59f3018 	ldr	r3, [pc, #24]	; a000bba8 <.text+0x3ba8>
a000bb8c:	e5823aa4 	str	r3, [r2, #2724]
a000bb90:	e59f2008 	ldr	r2, [pc, #8]	; a000bba0 <.text+0x3ba0>
a000bb94:	e59f3010 	ldr	r3, [pc, #16]	; a000bbac <.text+0x3bac>
a000bb98:	e5823aa8 	str	r3, [r2, #2728]
a000bb9c:	e99da800 	ldmib	sp, {fp, sp, pc}
a000bba0:	a000c3a8 	andge	ip, r0, r8, lsr #7
a000bba4:	a000c3ac 	andge	ip, r0, ip, lsr #7
a000bba8:	a000ba98 	mulge	r0, r8, sl
a000bbac:	a000b988 	andge	fp, r0, r8, lsl #19

a000bbb0 <sys_mysyscall>:
a000bbb0:	e1a0c00d 	mov	ip, sp
a000bbb4:	e92dd800 	stmdb	sp!, {fp, ip, lr, pc}
a000bbb8:	e24cb004 	sub	fp, ip, #4	; 0x4
a000bbbc:	e24dd00c 	sub	sp, sp, #12	; 0xc
a000bbc0:	e50b0010 	str	r0, [fp, #-16]
a000bbc4:	e50b1014 	str	r1, [fp, #-20]
a000bbc8:	e50b2018 	str	r2, [fp, #-24]
a000bbcc:	e59f0020 	ldr	r0, [pc, #32]	; a000bbf4 <.text+0x3bf4>
a000bbd0:	e51b1010 	ldr	r1, [fp, #-16]
a000bbd4:	e51b2014 	ldr	r2, [fp, #-20]
a000bbd8:	e51b3018 	ldr	r3, [fp, #-24]
a000bbdc:	ebfff654 	bl	a0009534 <printf>
a000bbe0:	e3a03f53 	mov	r3, #332	; 0x14c
a000bbe4:	e2833001 	add	r3, r3, #1	; 0x1
a000bbe8:	e1a00003 	mov	r0, r3
a000bbec:	e24bd00c 	sub	sp, fp, #12	; 0xc
a000bbf0:	e89da800 	ldmia	sp, {fp, sp, pc}
a000bbf4:	a000bed0 	ldrged	fp, [r0], -r0

a000bbf8 <syscall_init>:
a000bbf8:	e1a0c00d 	mov	ip, sp
a000bbfc:	e92dd800 	stmdb	sp!, {fp, ip, lr, pc}
a000bc00:	e24cb004 	sub	fp, ip, #4	; 0x4
a000bc04:	e59f2008 	ldr	r2, [pc, #8]	; a000bc14 <.text+0x3c14>
a000bc08:	e59f3008 	ldr	r3, [pc, #8]	; a000bc18 <.text+0x3c18>
a000bc0c:	e5823000 	str	r3, [r2]
a000bc10:	e89da800 	ldmia	sp, {fp, sp, pc}
a000bc14:	a000ce54 	andge	ip, r0, r4, asr lr
a000bc18:	a000bbb0 	strgeh	fp, [r0], -r0

a000bc1c <mysyscall>:
a000bc1c:	ef000000 	swi	0x00000000
a000bc20:	e1a0f00e 	mov	pc, lr

a000bc24 <user_task_1>:
a000bc24:	e1a0c00d 	mov	ip, sp
a000bc28:	e92dd800 	stmdb	sp!, {fp, ip, lr, pc}
a000bc2c:	e24cb004 	sub	fp, ip, #4	; 0x4
a000bc30:	e24dd00c 	sub	sp, sp, #12	; 0xc
a000bc34:	e3a03001 	mov	r3, #1	; 0x1
a000bc38:	e50b3010 	str	r3, [fp, #-16]
a000bc3c:	e3a03002 	mov	r3, #2	; 0x2
a000bc40:	e50b3014 	str	r3, [fp, #-20]
a000bc44:	e51b2010 	ldr	r2, [fp, #-16]
a000bc48:	e51b3014 	ldr	r3, [fp, #-20]
a000bc4c:	e0823003 	add	r3, r2, r3
a000bc50:	e50b3018 	str	r3, [fp, #-24]
a000bc54:	e24b3010 	sub	r3, fp, #16	; 0x10
a000bc58:	e24b2014 	sub	r2, fp, #20	; 0x14
a000bc5c:	e24bc018 	sub	ip, fp, #24	; 0x18
a000bc60:	e59f0014 	ldr	r0, [pc, #20]	; a000bc7c <.text+0x3c7c>
a000bc64:	e1a01003 	mov	r1, r3
a000bc68:	e1a0300c 	mov	r3, ip
a000bc6c:	ebfff630 	bl	a0009534 <printf>
a000bc70:	e3a00ffa 	mov	r0, #1000	; 0x3e8
a000bc74:	ebfff215 	bl	a00084d0 <msleep>
a000bc78:	eafffff5 	b	a000bc54 <user_task_1+0x30>
a000bc7c:	a000bef0 	strged	fp, [r0], -r0

a000bc80 <user_task_2>:
a000bc80:	e1a0c00d 	mov	ip, sp
a000bc84:	e92dd800 	stmdb	sp!, {fp, ip, lr, pc}
a000bc88:	e24cb004 	sub	fp, ip, #4	; 0x4
a000bc8c:	e24dd00c 	sub	sp, sp, #12	; 0xc
a000bc90:	e3a03001 	mov	r3, #1	; 0x1
a000bc94:	e50b3010 	str	r3, [fp, #-16]
a000bc98:	e3a03002 	mov	r3, #2	; 0x2
a000bc9c:	e50b3014 	str	r3, [fp, #-20]
a000bca0:	e51b2010 	ldr	r2, [fp, #-16]
a000bca4:	e51b3014 	ldr	r3, [fp, #-20]
a000bca8:	e0823003 	add	r3, r2, r3
a000bcac:	e50b3018 	str	r3, [fp, #-24]
a000bcb0:	e24b3010 	sub	r3, fp, #16	; 0x10
a000bcb4:	e24b2014 	sub	r2, fp, #20	; 0x14
a000bcb8:	e24bc018 	sub	ip, fp, #24	; 0x18
a000bcbc:	e59f0014 	ldr	r0, [pc, #20]	; a000bcd8 <.text+0x3cd8>
a000bcc0:	e1a01003 	mov	r1, r3
a000bcc4:	e1a0300c 	mov	r3, ip
a000bcc8:	ebfff619 	bl	a0009534 <printf>
a000bccc:	e3a00ffa 	mov	r0, #1000	; 0x3e8
a000bcd0:	ebfff1fe 	bl	a00084d0 <msleep>
a000bcd4:	eafffff5 	b	a000bcb0 <user_task_2+0x30>
a000bcd8:	a000bf08 	andge	fp, r0, r8, lsl #30

a000bcdc <user_task_3>:
a000bcdc:	e1a0c00d 	mov	ip, sp
a000bce0:	e92dd800 	stmdb	sp!, {fp, ip, lr, pc}
a000bce4:	e24cb004 	sub	fp, ip, #4	; 0x4
a000bce8:	e24dd00c 	sub	sp, sp, #12	; 0xc
a000bcec:	e3a03001 	mov	r3, #1	; 0x1
a000bcf0:	e50b3010 	str	r3, [fp, #-16]
a000bcf4:	e3a03002 	mov	r3, #2	; 0x2
a000bcf8:	e50b3014 	str	r3, [fp, #-20]
a000bcfc:	e51b2010 	ldr	r2, [fp, #-16]
a000bd00:	e51b3014 	ldr	r3, [fp, #-20]
a000bd04:	e0823003 	add	r3, r2, r3
a000bd08:	e50b3018 	str	r3, [fp, #-24]
a000bd0c:	e24b3010 	sub	r3, fp, #16	; 0x10
a000bd10:	e24b2014 	sub	r2, fp, #20	; 0x14
a000bd14:	e24bc018 	sub	ip, fp, #24	; 0x18
a000bd18:	e59f0038 	ldr	r0, [pc, #56]	; a000bd58 <.text+0x3d58>
a000bd1c:	e1a01003 	mov	r1, r3
a000bd20:	e1a0300c 	mov	r3, ip
a000bd24:	ebfff602 	bl	a0009534 <printf>
a000bd28:	e3a00001 	mov	r0, #1	; 0x1
a000bd2c:	e3a01002 	mov	r1, #2	; 0x2
a000bd30:	e3a02003 	mov	r2, #3	; 0x3
a000bd34:	ebffffb8 	bl	a000bc1c <mysyscall>
a000bd38:	e1a03000 	mov	r3, r0
a000bd3c:	e50b3018 	str	r3, [fp, #-24]
a000bd40:	e59f0014 	ldr	r0, [pc, #20]	; a000bd5c <.text+0x3d5c>
a000bd44:	e51b1018 	ldr	r1, [fp, #-24]
a000bd48:	ebfff5f9 	bl	a0009534 <printf>
a000bd4c:	e3a00ffa 	mov	r0, #1000	; 0x3e8
a000bd50:	ebfff1de 	bl	a00084d0 <msleep>
a000bd54:	eaffffec 	b	a000bd0c <user_task_3+0x30>
a000bd58:	a000bf20 	andge	fp, r0, r0, lsr #30
a000bd5c:	a000bf38 	andge	fp, r0, r8, lsr pc

a000bd60 <navilnux_user>:
a000bd60:	e1a0c00d 	mov	ip, sp
a000bd64:	e92dd800 	stmdb	sp!, {fp, ip, lr, pc}
a000bd68:	e24cb004 	sub	fp, ip, #4	; 0x4
a000bd6c:	e59f3038 	ldr	r3, [pc, #56]	; a000bdac <.text+0x3dac>
a000bd70:	e5933aa8 	ldr	r3, [r3, #2728]
a000bd74:	e59f0034 	ldr	r0, [pc, #52]	; a000bdb0 <.text+0x3db0>
a000bd78:	e1a0e00f 	mov	lr, pc
a000bd7c:	e1a0f003 	mov	pc, r3
a000bd80:	e59f3024 	ldr	r3, [pc, #36]	; a000bdac <.text+0x3dac>
a000bd84:	e5933aa8 	ldr	r3, [r3, #2728]
a000bd88:	e59f0024 	ldr	r0, [pc, #36]	; a000bdb4 <.text+0x3db4>
a000bd8c:	e1a0e00f 	mov	lr, pc
a000bd90:	e1a0f003 	mov	pc, r3
a000bd94:	e59f3010 	ldr	r3, [pc, #16]	; a000bdac <.text+0x3dac>
a000bd98:	e5933aa8 	ldr	r3, [r3, #2728]
a000bd9c:	e59f0014 	ldr	r0, [pc, #20]	; a000bdb8 <.text+0x3db8>
a000bda0:	e1a0e00f 	mov	lr, pc
a000bda4:	e1a0f003 	mov	pc, r3
a000bda8:	e89da800 	ldmia	sp, {fp, sp, pc}
a000bdac:	a000c3a8 	andge	ip, r0, r8, lsr #7
a000bdb0:	a000bc24 	andge	fp, r0, r4, lsr #24
a000bdb4:	a000bc80 	andge	fp, r0, r0, lsl #25
a000bdb8:	a000bcdc 	ldrged	fp, [r0], -ip
Disassembly of section .rodata:

a000bdc0 <.rodata>:
a000bdc0:	33323130 	teqcc	r2, #12	; 0xc
a000bdc4:	37363534 	undefined
a000bdc8:	62613938 	rsbvs	r3, r1, #917504	; 0xe0000
a000bdcc:	66656463 	strvsbt	r6, [r5], -r3, ror #8
a000bdd0:	6a696867 	bvs	a1a65f74 <navilnux_syscallvec+0x1a59120>
a000bdd4:	6e6d6c6b 	cdpvs	12, 6, cr6, cr13, cr11, {3}
a000bdd8:	7271706f 	rsbvcs	r7, r1, #111	; 0x6f
a000bddc:	76757473 	undefined
a000bde0:	7a797877 	bvc	a1e69fc4 <navilnux_syscallvec+0x1e5d170>
a000bde4:	00000000 	andeq	r0, r0, r0
a000bde8:	33323130 	teqcc	r2, #12	; 0xc
a000bdec:	37363534 	undefined
a000bdf0:	42413938 	submi	r3, r1, #917504	; 0xe0000
a000bdf4:	46454443 	strmib	r4, [r5], -r3, asr #8
a000bdf8:	4a494847 	bmi	a125df1c <navilnux_syscallvec+0x12510c8>
a000bdfc:	4e4d4c4b 	cdpmi	12, 4, cr4, cr13, cr11, {2}
a000be00:	5251504f 	subpls	r5, r1, #79	; 0x4f
a000be04:	56555453 	undefined
a000be08:	5a595857 	bpl	a1661f6c <navilnux_syscallvec+0x1655118>
a000be0c:	00000000 	andeq	r0, r0, r0
a000be10:	4c554e3c 	mrrcmi	14, 3, r4, r5, cr12
a000be14:	00003e4c 	andeq	r3, r0, ip, asr #28
a000be18:	00006325 	andeq	r6, r0, r5, lsr #6
a000be1c:	00000000 	andeq	r0, r0, r0
a000be20:	00082008 	andeq	r2, r8, r8
a000be24:	00000000 	andeq	r0, r0, r0
a000be28:	00007325 	andeq	r7, r0, r5, lsr #6
a000be2c:	00000000 	andeq	r0, r0, r0
a000be30:	0000002e 	andeq	r0, r0, lr, lsr #32
a000be34:	00000000 	andeq	r0, r0, r0
a000be38:	74697753 	strvcbt	r7, [r9], #-1875
a000be3c:	50206863 	eorpl	r6, r0, r3, ror #16
a000be40:	21687375 	cmncs	r8, r5, ror r3
a000be44:	00000a21 	andeq	r0, r0, r1, lsr #20
a000be48:	6e72654b 	cdpvs	5, 7, cr6, cr2, cr11, {2}
a000be4c:	50206c65 	eorpl	r6, r0, r5, ror #24
a000be50:	696e6e61 	stmvsdb	lr!, {r0, r5, r6, r9, sl, fp, sp, lr}^
a000be54:	000a2163 	andeq	r2, sl, r3, ror #2
a000be58:	20424354 	subcs	r4, r2, r4, asr r3
a000be5c:	4154203a 	cmpmi	r4, sl, lsr r0
a000be60:	64254b53 	strvst	r4, [r5], #-2899
a000be64:	69202d20 	stmvsdb	r0!, {r5, r8, sl, fp, sp}
a000be68:	2074696e 	rsbcss	r6, r4, lr, ror #18
a000be6c:	25284350 	strcs	r4, [r8, #-848]!
a000be70:	09202970 	stmeqdb	r0!, {r4, r5, r6, r8, fp, sp}
a000be74:	696e6920 	stmvsdb	lr!, {r5, r8, fp, sp, lr}^
a000be78:	50532074 	subpls	r2, r3, r4, ror r0
a000be7c:	29702528 	ldmcsdb	r0!, {r3, r5, r8, sl, sp}^
a000be80:	0000000a 	andeq	r0, r0, sl
a000be84:	00000000 	andeq	r0, r0, r0
a000be88:	4c414552 	cfstr64mi	mvdx4, [r1], {82}
a000be8c:	6e756620 	cdpvs	6, 7, cr6, cr5, cr0, {1}
a000be90:	41542063 	cmpmi	r4, r3, rrx
a000be94:	20314b53 	eorcss	r4, r1, r3, asr fp
a000be98:	7025203a 	eorvc	r2, r5, sl, lsr r0
a000be9c:	0000000a 	andeq	r0, r0, sl
a000bea0:	4c414552 	cfstr64mi	mvdx4, [r1], {82}
a000bea4:	6e756620 	cdpvs	6, 7, cr6, cr5, cr0, {1}
a000bea8:	41542063 	cmpmi	r4, r3, rrx
a000beac:	20324b53 	eorcss	r4, r2, r3, asr fp
a000beb0:	7025203a 	eorvc	r2, r5, sl, lsr r0
a000beb4:	0000000a 	andeq	r0, r0, sl
a000beb8:	4c414552 	cfstr64mi	mvdx4, [r1], {82}
a000bebc:	6e756620 	cdpvs	6, 7, cr6, cr5, cr0, {1}
a000bec0:	41542063 	cmpmi	r4, r3, rrx
a000bec4:	20334b53 	eorcss	r4, r3, r3, asr fp
a000bec8:	7025203a 	eorvc	r2, r5, sl, lsr r0
a000becc:	0000000a 	andeq	r0, r0, sl
a000bed0:	5320794d 	teqpl	r0, #1261568	; 0x134000
a000bed4:	65747379 	ldrvsb	r7, [r4, #-889]!
a000bed8:	6c61636d 	stcvsl	3, cr6, [r1], #-436
a000bedc:	202d206c 	eorcs	r2, sp, ip, rrx
a000bee0:	202c6425 	eorcs	r6, ip, r5, lsr #8
a000bee4:	202e6425 	eorcs	r6, lr, r5, lsr #8
a000bee8:	000a6425 	andeq	r6, sl, r5, lsr #8
a000beec:	00000000 	andeq	r0, r0, r0
a000bef0:	4b534154 	blmi	a14dc448 <navilnux_syscallvec+0x14cf5f4>
a000bef4:	202d2031 	eorcs	r2, sp, r1, lsr r0
a000bef8:	70253a61 	eorvc	r3, r5, r1, ror #20
a000befc:	253a6209 	ldrcs	r6, [sl, #-521]!
a000bf00:	3a630970 	bcc	a18ce4c8 <navilnux_syscallvec+0x18c1674>
a000bf04:	000a7025 	andeq	r7, sl, r5, lsr #32
a000bf08:	4b534154 	blmi	a14dc460 <navilnux_syscallvec+0x14cf60c>
a000bf0c:	202d2032 	eorcs	r2, sp, r2, lsr r0
a000bf10:	70253a61 	eorvc	r3, r5, r1, ror #20
a000bf14:	253a6209 	ldrcs	r6, [sl, #-521]!
a000bf18:	3a630970 	bcc	a18ce4e0 <navilnux_syscallvec+0x18c168c>
a000bf1c:	000a7025 	andeq	r7, sl, r5, lsr #32
a000bf20:	4b534154 	blmi	a14dc478 <navilnux_syscallvec+0x14cf624>
a000bf24:	202d2033 	eorcs	r2, sp, r3, lsr r0
a000bf28:	70253a61 	eorvc	r3, r5, r1, ror #20
a000bf2c:	253a6209 	ldrcs	r6, [sl, #-521]!
a000bf30:	3a630970 	bcc	a18ce4f8 <navilnux_syscallvec+0x18c16a4>
a000bf34:	000a7025 	andeq	r7, sl, r5, lsr #32
a000bf38:	63737953 	cmnvs	r3, #1359872	; 0x14c000
a000bf3c:	206c6c61 	rsbcs	r6, ip, r1, ror #24
a000bf40:	75746572 	ldrvcb	r6, [r4, #-1394]!
a000bf44:	76206e72 	undefined
a000bf48:	65756c61 	ldrvsb	r6, [r5, #-3169]!
a000bf4c:	20736920 	rsbcss	r6, r3, r0, lsr #18
a000bf50:	000a6425 	andeq	r6, sl, r5, lsr #8
a000bf54:	00000000 	andeq	r0, r0, r0
Disassembly of section .data:

a000bf58 <_ctype>:
a000bf58:	08080808 	stmeqda	r8, {r3, fp}
a000bf5c:	08080808 	stmeqda	r8, {r3, fp}
a000bf60:	28282808 	stmcsda	r8!, {r3, fp, sp}
a000bf64:	08082828 	stmeqda	r8, {r3, r5, fp, sp}
a000bf68:	08080808 	stmeqda	r8, {r3, fp}
a000bf6c:	08080808 	stmeqda	r8, {r3, fp}
a000bf70:	08080808 	stmeqda	r8, {r3, fp}
a000bf74:	08080808 	stmeqda	r8, {r3, fp}
a000bf78:	101010a0 	andnes	r1, r0, r0, lsr #1
a000bf7c:	10101010 	andnes	r1, r0, r0, lsl r0
a000bf80:	10101010 	andnes	r1, r0, r0, lsl r0
a000bf84:	10101010 	andnes	r1, r0, r0, lsl r0
a000bf88:	04040404 	streq	r0, [r4], #-1028
a000bf8c:	04040404 	streq	r0, [r4], #-1028
a000bf90:	10100404 	andnes	r0, r0, r4, lsl #8
a000bf94:	10101010 	andnes	r1, r0, r0, lsl r0
a000bf98:	41414110 	cmpmi	r1, r0, lsl r1
a000bf9c:	01414141 	cmpeq	r1, r1, asr #2
a000bfa0:	01010101 	tsteq	r1, r1, lsl #2
a000bfa4:	01010101 	tsteq	r1, r1, lsl #2
a000bfa8:	01010101 	tsteq	r1, r1, lsl #2
a000bfac:	01010101 	tsteq	r1, r1, lsl #2
a000bfb0:	10010101 	andne	r0, r1, r1, lsl #2
a000bfb4:	10101010 	andnes	r1, r0, r0, lsl r0
a000bfb8:	42424210 	submi	r4, r2, #1	; 0x1
a000bfbc:	02424242 	subeq	r4, r2, #536870916	; 0x20000004
a000bfc0:	02020202 	andeq	r0, r2, #536870912	; 0x20000000
a000bfc4:	02020202 	andeq	r0, r2, #536870912	; 0x20000000
a000bfc8:	02020202 	andeq	r0, r2, #536870912	; 0x20000000
a000bfcc:	02020202 	andeq	r0, r2, #536870912	; 0x20000000
a000bfd0:	10020202 	andne	r0, r2, r2, lsl #4
a000bfd4:	08101010 	ldmeqda	r0, {r4, ip}
	...
a000bff8:	101010a0 	andnes	r1, r0, r0, lsr #1
a000bffc:	10101010 	andnes	r1, r0, r0, lsl r0
a000c000:	10101010 	andnes	r1, r0, r0, lsl r0
a000c004:	10101010 	andnes	r1, r0, r0, lsl r0
a000c008:	10101010 	andnes	r1, r0, r0, lsl r0
a000c00c:	10101010 	andnes	r1, r0, r0, lsl r0
a000c010:	10101010 	andnes	r1, r0, r0, lsl r0
a000c014:	10101010 	andnes	r1, r0, r0, lsl r0
a000c018:	01010101 	tsteq	r1, r1, lsl #2
a000c01c:	01010101 	tsteq	r1, r1, lsl #2
a000c020:	01010101 	tsteq	r1, r1, lsl #2
a000c024:	01010101 	tsteq	r1, r1, lsl #2
a000c028:	01010101 	tsteq	r1, r1, lsl #2
a000c02c:	10010101 	andne	r0, r1, r1, lsl #2
a000c030:	01010101 	tsteq	r1, r1, lsl #2
a000c034:	02010101 	andeq	r0, r1, #1073741824	; 0x40000000
a000c038:	02020202 	andeq	r0, r2, #536870912	; 0x20000000
a000c03c:	02020202 	andeq	r0, r2, #536870912	; 0x20000000
a000c040:	02020202 	andeq	r0, r2, #536870912	; 0x20000000
a000c044:	02020202 	andeq	r0, r2, #536870912	; 0x20000000
a000c048:	02020202 	andeq	r0, r2, #536870912	; 0x20000000
a000c04c:	10020202 	andne	r0, r2, r2, lsl #4
a000c050:	02020202 	andeq	r0, r2, #536870912	; 0x20000000
a000c054:	02020202 	andeq	r0, r2, #536870912	; 0x20000000

a000c058 <UART>:
a000c058:	40700000 	rsbmis	r0, r0, r0
Disassembly of section .bss:

a000c05c <numOverflows>:
a000c05c:	00000000 	andeq	r0, r0, r0

a000c060 <HisBuff>:
	...

a000c160 <HisCount>:
a000c160:	00000000 	andeq	r0, r0, r0

a000c164 <HisIndex>:
a000c164:	00000000 	andeq	r0, r0, r0

a000c168 <___strtok>:
a000c168:	00000000 	andeq	r0, r0, r0

a000c16c <SerialErrorFlag>:
a000c16c:	00000000 	andeq	r0, r0, r0

a000c170 <navilnux_current>:
a000c170:	00000000 	andeq	r0, r0, r0

a000c174 <navilnux_next>:
a000c174:	00000000 	andeq	r0, r0, r0

a000c178 <dummyTCB>:
	...

a000c1bc <navilnux_current_index>:
a000c1bc:	00000000 	andeq	r0, r0, r0

a000c1c0 <memmng>:
	...

a000c3a8 <taskmng>:
	...

a000ce54 <navilnux_syscallvec>:
	...
Disassembly of section .comment:

00000000 <.comment>:
   0:	43434700 	cmpmi	r3, #0	; 0x0
   4:	4728203a 	undefined
   8:	2029554e 	eorcs	r5, r9, lr, asr #10
   c:	2e342e33 	mrccs	14, 1, r2, cr4, cr3, {1}
  10:	47000033 	smladxmi	r0, r3, r0, r0
  14:	203a4343 	eorcss	r4, sl, r3, asr #6
  18:	554e4728 	strplb	r4, [lr, #-1832]
  1c:	2e332029 	cdpcs	0, 3, cr2, cr3, cr9, {1}
  20:	00332e34 	eoreqs	r2, r3, r4, lsr lr
  24:	43434700 	cmpmi	r3, #0	; 0x0
  28:	4728203a 	undefined
  2c:	2029554e 	eorcs	r5, r9, lr, asr #10
  30:	2e342e33 	mrccs	14, 1, r2, cr4, cr3, {1}
  34:	47000033 	smladxmi	r0, r3, r0, r0
  38:	203a4343 	eorcss	r4, sl, r3, asr #6
  3c:	554e4728 	strplb	r4, [lr, #-1832]
  40:	2e332029 	cdpcs	0, 3, cr2, cr3, cr9, {1}
  44:	00332e34 	eoreqs	r2, r3, r4, lsr lr
  48:	43434700 	cmpmi	r3, #0	; 0x0
  4c:	4728203a 	undefined
  50:	2029554e 	eorcs	r5, r9, lr, asr #10
  54:	2e342e33 	mrccs	14, 1, r2, cr4, cr3, {1}
  58:	47000033 	smladxmi	r0, r3, r0, r0
  5c:	203a4343 	eorcss	r4, sl, r3, asr #6
  60:	554e4728 	strplb	r4, [lr, #-1832]
  64:	2e332029 	cdpcs	0, 3, cr2, cr3, cr9, {1}
  68:	00332e34 	eoreqs	r2, r3, r4, lsr lr
  6c:	43434700 	cmpmi	r3, #0	; 0x0
  70:	4728203a 	undefined
  74:	2029554e 	eorcs	r5, r9, lr, asr #10
  78:	2e342e33 	mrccs	14, 1, r2, cr4, cr3, {1}
  7c:	47000033 	smladxmi	r0, r3, r0, r0
  80:	203a4343 	eorcss	r4, sl, r3, asr #6
  84:	554e4728 	strplb	r4, [lr, #-1832]
  88:	2e332029 	cdpcs	0, 3, cr2, cr3, cr9, {1}
  8c:	00332e34 	eoreqs	r2, r3, r4, lsr lr
  90:	43434700 	cmpmi	r3, #0	; 0x0
  94:	4728203a 	undefined
  98:	2029554e 	eorcs	r5, r9, lr, asr #10
  9c:	2e342e33 	mrccs	14, 1, r2, cr4, cr3, {1}
  a0:	47000033 	smladxmi	r0, r3, r0, r0
  a4:	203a4343 	eorcss	r4, sl, r3, asr #6
  a8:	554e4728 	strplb	r4, [lr, #-1832]
  ac:	2e332029 	cdpcs	0, 3, cr2, cr3, cr9, {1}
  b0:	00332e34 	eoreqs	r2, r3, r4, lsr lr
  b4:	43434700 	cmpmi	r3, #0	; 0x0
  b8:	4728203a 	undefined
  bc:	2029554e 	eorcs	r5, r9, lr, asr #10
  c0:	2e342e33 	mrccs	14, 1, r2, cr4, cr3, {1}
  c4:	Address 0xc4 is out of bounds.

